(lp0
(lp1
F0.0
aF0.007
aVwordPlacementMarker0 Welcome wordPlacementMarker1 to wordPlacementMarker2 the wordPlacementMarker3 Economic wordPlacementMarker4 Science wordPlacementMarker5 Laboratory  
p2
aa(lp3
F2.603
aF4.057
aV wordPlacementMarker6 Please wordPlacementMarker7 carefully wordPlacementMarker8 watch wordPlacementMarker9 these wordPlacementMarker10 video wordPlacementMarker11 instructions wordPlacementMarker12 and wordPlacementMarker13 follow wordPlacementMarker14 along wordPlacementMarker15 on wordPlacementMarker16 the wordPlacementMarker17 paper wordPlacementMarker18 copy wordPlacementMarker19 at wordPlacementMarker20 your wordPlacementMarker21 desk  
p4
aa(lp5
F9.338
aF11.719
aV wordPlacementMarker22 Welcome 
p6
aa(lp7
F12.273
aF12.96
aV wordPlacementMarker23 You wordPlacementMarker24 are wordPlacementMarker25 about wordPlacementMarker26 to wordPlacementMarker27 participate wordPlacementMarker28 in wordPlacementMarker29 an wordPlacementMarker30 experiment wordPlacementMarker31 in wordPlacementMarker32 the wordPlacementMarker33 economics wordPlacementMarker34 of wordPlacementMarker35 decision making  
p8
aa(lp9
F17.329
aF18.503
aV wordPlacementMarker36 If wordPlacementMarker37 you wordPlacementMarker38 listen wordPlacementMarker39 carefully 
p10
aa(lp11
F19.922
aF20.103
aV  wordPlacementMarker40 you wordPlacementMarker41 could wordPlacementMarker42 earn wordPlacementMarker43 a wordPlacementMarker44 large wordPlacementMarker45 amount wordPlacementMarker46 of wordPlacementMarker47 money 
p12
aa(lp13
F21.921
aF22.06
aV  wordPlacementMarker48 that wordPlacementMarker49 will wordPlacementMarker50 be wordPlacementMarker51 paid wordPlacementMarker52 to wordPlacementMarker53 you wordPlacementMarker54 in wordPlacementMarker55 cash 
p14
aa(lp15
F23.982
aF24.161
aV  wordPlacementMarker56 in wordPlacementMarker57 private 
p16
aa(lp17
F24.855
aF25.033
aV  wordPlacementMarker58 at wordPlacementMarker59 the wordPlacementMarker60 end wordPlacementMarker61 of wordPlacementMarker62 the wordPlacementMarker63 experiment  
p18
aa(lp19
F26.532
aF27.715
aV wordPlacementMarker64 It wordPlacementMarker65 is wordPlacementMarker66 important wordPlacementMarker67 that wordPlacementMarker68 you wordPlacementMarker69 remain wordPlacementMarker70 silent 
p20
aa(lp21
F29.782
aF29.959
aV  wordPlacementMarker71 and wordPlacementMarker72 do wordPlacementMarker73 not wordPlacementMarker74 look wordPlacementMarker75 at wordPlacementMarker76 other wordPlacementMarker77 people's wordPlacementMarker78 work  
p22
aa(lp23
F31.812
aF32.997
aV wordPlacementMarker79 If wordPlacementMarker80 you wordPlacementMarker81 have wordPlacementMarker82 any wordPlacementMarker83 questions 
p24
aa(lp25
F34.38
aF34.561
aV  wordPlacementMarker84 or wordPlacementMarker85 need wordPlacementMarker86 any wordPlacementMarker87 assistance wordPlacementMarker88 of wordPlacementMarker89 any wordPlacementMarker90 kind 
p26
aa(lp27
F36.585
aF36.738
aV  wordPlacementMarker91 please wordPlacementMarker92 raise wordPlacementMarker93 your wordPlacementMarker94 hand wordPlacementMarker95 and wordPlacementMarker96 an wordPlacementMarker97 experimenter wordPlacementMarker98 will wordPlacementMarker99 help wordPlacementMarker100 you wordPlacementMarker101 out  
p28
aa(lp29
F39.681
aF40.869
aV wordPlacementMarker102 During wordPlacementMarker103 the wordPlacementMarker104 experiment 
p30
aa(lp31
F42.181
aF42.377
aV  wordPlacementMarker105 do wordPlacementMarker106 not wordPlacementMarker107 talk 
p32
aa(lp33
F43.23
aF43.415
aV  wordPlacementMarker108 laugh wordPlacementMarker109 or wordPlacementMarker110 exclaim wordPlacementMarker111 out wordPlacementMarker112 loud wordPlacementMarker113 and wordPlacementMarker114 be wordPlacementMarker115 sure wordPlacementMarker116 to wordPlacementMarker117 keep wordPlacementMarker118 your wordPlacementMarker119 eyes wordPlacementMarker120 on wordPlacementMarker121 your wordPlacementMarker122 screen wordPlacementMarker123 only  
p34
aa(lp35
F47.457
aF48.655
aV wordPlacementMarker124 In wordPlacementMarker125 addition 
p36
aa(lp37
F49.505
aF49.703
aV  wordPlacementMarker126 please wordPlacementMarker127 turn wordPlacementMarker128 off wordPlacementMarker129 your wordPlacementMarker130 cell wordPlacementMarker131 phones 
p38
aa(lp39
F51.444
aF51.623
aV  wordPlacementMarker132 etc  
p40
aa(lp41
F52.251
aF53.424
aV wordPlacementMarker133 and wordPlacementMarker134 put wordPlacementMarker135 them wordPlacementMarker136 away wordPlacementMarker137 during wordPlacementMarker138 the wordPlacementMarker139 experiment  
p42
aa(lp43
F55.433
aF56.624
aV wordPlacementMarker140 Anybody wordPlacementMarker141 that wordPlacementMarker142 violates wordPlacementMarker143 these wordPlacementMarker144 rules wordPlacementMarker145 will wordPlacementMarker146 be wordPlacementMarker147 asked wordPlacementMarker148 to wordPlacementMarker149 leave wordPlacementMarker150 and wordPlacementMarker151 will wordPlacementMarker152 not wordPlacementMarker153 be wordPlacementMarker154 paid  
p44
aa(lp45
F60.59
aF61.747
aV wordPlacementMarker155 We wordPlacementMarker156 expect 
p46
aa(lp47
F62.334
aF62.518
aV  wordPlacementMarker157 and wordPlacementMarker158 appreciate wordPlacementMarker159 your wordPlacementMarker160 cooperation  
p48
aa(lp49
F64.345
aF66.022
aV wordPlacementMarker161 Agenda 
p50
aa(lp51
F66.602
aF67.268
aV wordPlacementMarker162 one  
p52
aa(lp53
F67.742
aF69.429
aV wordPlacementMarker163 Instructions  
p54
aa(lp55
F70.338
aF71.537
aV wordPlacementMarker164 two  
p56
aa(lp57
F71.939
aF73.819
aV wordPlacementMarker165 Quiz 
p58
aa(lp59
F74.388
aF75.094
aV wordPlacementMarker166  to wordPlacementMarker167 make wordPlacementMarker168 sure wordPlacementMarker169 everyone wordPlacementMarker170 understands wordPlacementMarker171 the wordPlacementMarker172 instructions   
p60
aa(lp61
F77.956
aF79.641
aV wordPlacementMarker173 The wordPlacementMarker174 quiz wordPlacementMarker175 will wordPlacementMarker176 consist wordPlacementMarker177 of wordPlacementMarker178 twelve wordPlacementMarker179 questions  
p62
aa(lp63
F81.959
aF83.152
aV wordPlacementMarker180 The wordPlacementMarker181 experiment wordPlacementMarker182 will wordPlacementMarker183 not wordPlacementMarker184 begin wordPlacementMarker185 until wordPlacementMarker186 everyone wordPlacementMarker187 has wordPlacementMarker188 correctly wordPlacementMarker189 answered wordPlacementMarker190 all wordPlacementMarker191 questions  
p64
aa(lp65
F87.518
aF88.774
aV wordPlacementMarker192 three  
p66
aa(lp67
F89.262
aF90.949
aV wordPlacementMarker193 Experiment  
p68
aa(lp69
F91.737
aF92.931
aV wordPlacementMarker194 four  
p70
aa(lp71
F93.498
aF95.201
aV wordPlacementMarker195 Three wordPlacementMarker196 additional wordPlacementMarker197 tasks  
p72
aa(lp73
F96.699
aF97.874
aV wordPlacementMarker198 five  
p74
aa(lp75
F98.469
aF100.156
aV wordPlacementMarker199 Survey  
p76
aa(lp77
F100.745
aF101.935
aV wordPlacementMarker200 After wordPlacementMarker201 you wordPlacementMarker202 have wordPlacementMarker203 completed wordPlacementMarker204 the wordPlacementMarker205 experiment 
p78
aa(lp79
F103.994
aF104.177
aV  wordPlacementMarker206 you wordPlacementMarker207 will wordPlacementMarker208 be wordPlacementMarker209 asked wordPlacementMarker210 to wordPlacementMarker211 answer wordPlacementMarker212 several wordPlacementMarker213 survey wordPlacementMarker214 questions wordPlacementMarker215 using wordPlacementMarker216 the wordPlacementMarker217 computer  
p80
aa(lp81
F107.934
aF109.107
aV wordPlacementMarker218 six  
p82
aa(lp83
F109.718
aF111.431
aV wordPlacementMarker219 Payment  
p84
aa(lp85
F111.98
aF113.166
aV wordPlacementMarker220 After wordPlacementMarker221 everyone wordPlacementMarker222 has wordPlacementMarker223 finished wordPlacementMarker224 the wordPlacementMarker225 survey 
p86
aa(lp87
F115.43
aF115.619
aV  wordPlacementMarker226 you wordPlacementMarker227 will wordPlacementMarker228 be wordPlacementMarker229 paid wordPlacementMarker230 in wordPlacementMarker231 cash  
p88
aa(lp89
F117.002
aF118.677
aV wordPlacementMarker232 Experiment wordPlacementMarker233 Overview 
p90
aa(lp91
F119.998
aF120.685
aV wordPlacementMarker234 In wordPlacementMarker235 the wordPlacementMarker236 experiment wordPlacementMarker237 today wordPlacementMarker238 you wordPlacementMarker239 will wordPlacementMarker240 be wordPlacementMarker241 matched wordPlacementMarker242 into wordPlacementMarker243 pairs 
p92
aa(lp93
F123.734
aF123.901
aV  wordPlacementMarker244 and wordPlacementMarker245 will wordPlacementMarker246 be wordPlacementMarker247 asked wordPlacementMarker248 to wordPlacementMarker249 make wordPlacementMarker250 choices  
p94
aa(lp95
F125.685
aF126.849
aV wordPlacementMarker251 The wordPlacementMarker252 choices wordPlacementMarker253 made wordPlacementMarker254 by wordPlacementMarker255 you wordPlacementMarker256 may wordPlacementMarker257 affect wordPlacementMarker258 both wordPlacementMarker259 your wordPlacementMarker260 payoff 
p96
aa(lp97
F129.47
aF129.66
aV  wordPlacementMarker261 as wordPlacementMarker262 well wordPlacementMarker263 as wordPlacementMarker264 the wordPlacementMarker265 payoff wordPlacementMarker266 of wordPlacementMarker267 the wordPlacementMarker268 subject wordPlacementMarker269 that wordPlacementMarker270 you wordPlacementMarker271 are wordPlacementMarker272 matched wordPlacementMarker273 with  
p98
aa(lp99
F132.641
aF133.844
aV wordPlacementMarker274 Similarly 
p100
aa(lp101
F134.679
aF134.856
aV  wordPlacementMarker275 the wordPlacementMarker276 choices wordPlacementMarker277 of wordPlacementMarker278 the wordPlacementMarker279 subject wordPlacementMarker280 that wordPlacementMarker281 you wordPlacementMarker282 are wordPlacementMarker283 matched wordPlacementMarker284 with wordPlacementMarker285 may wordPlacementMarker286 affect wordPlacementMarker287 their wordPlacementMarker288 payoff wordPlacementMarker289 and wordPlacementMarker290 your wordPlacementMarker291 payoff  
p102
aa(lp103
F139.25
aF140.941
aV wordPlacementMarker292 Experiment wordPlacementMarker293 Details 
p104
aa(lp105
F142.333
aF143.035
aV wordPlacementMarker294 In wordPlacementMarker295 the wordPlacementMarker296 experiment wordPlacementMarker297 today 
p106
aa(lp107
F144.459
aF144.637
aV  wordPlacementMarker298 you wordPlacementMarker299 will wordPlacementMarker300 be wordPlacementMarker301 working wordPlacementMarker302 with wordPlacementMarker303 a wordPlacementMarker304 fictitious wordPlacementMarker305 currency wordPlacementMarker306 called wordPlacementMarker307 Francs  
p108
aa(lp109
F147.843
aF149.032
aV wordPlacementMarker308 You wordPlacementMarker309 will wordPlacementMarker310 be wordPlacementMarker311 paid wordPlacementMarker312 in wordPlacementMarker313 US wordPlacementMarker314 Dollars wordPlacementMarker315 at wordPlacementMarker316 the wordPlacementMarker317 end wordPlacementMarker318 of wordPlacementMarker319 the wordPlacementMarker320 experiment  
p110
aa(lp111
F152.318
aF153.494
aV wordPlacementMarker321 Exchange wordPlacementMarker322 rate wordPlacementMarker323  
p112
aa(lp113
F154.455
aF155.156
aV wordPlacementMarker324 twenty wordPlacementMarker325 Francs wordPlacementMarker326 equals wordPlacementMarker327 one wordPlacementMarker328 dollar  
p114
aa(lp115
F157.037
aF158.22
aV wordPlacementMarker329 This wordPlacementMarker330 experiment wordPlacementMarker331 consists wordPlacementMarker332 of wordPlacementMarker333 five wordPlacementMarker334 matches 
p116
aa(lp117
F160.794
aF160.981
aV  wordPlacementMarker335 each wordPlacementMarker336 of wordPlacementMarker337 which wordPlacementMarker338 may wordPlacementMarker339 have wordPlacementMarker340 a wordPlacementMarker341 different wordPlacementMarker342 number wordPlacementMarker343 of wordPlacementMarker344 periods 
p118
aa(lp119
F163.486
aF163.673
aV  wordPlacementMarker345 and wordPlacementMarker346 may wordPlacementMarker347 have wordPlacementMarker348 different wordPlacementMarker349 payoffs  
p120
aa(lp121
F165.257
aF166.443
aV wordPlacementMarker350 At wordPlacementMarker351 the wordPlacementMarker352 beginning wordPlacementMarker353 of wordPlacementMarker354 each wordPlacementMarker355 match 
p122
aa(lp123
F168.128
aF168.313
aV  wordPlacementMarker356 you wordPlacementMarker357 will wordPlacementMarker358 be wordPlacementMarker359 matched wordPlacementMarker360 with wordPlacementMarker361 one wordPlacementMarker362 other wordPlacementMarker363 subject wordPlacementMarker364 that wordPlacementMarker365 you wordPlacementMarker366 have wordPlacementMarker367 not wordPlacementMarker368 been wordPlacementMarker369 matched wordPlacementMarker370 with wordPlacementMarker371 before  
p124
aa(lp125
F172.149
aF173.346
aV wordPlacementMarker372 The wordPlacementMarker373 random wordPlacementMarker374 pairing wordPlacementMarker375 will wordPlacementMarker376 ensure wordPlacementMarker377 that wordPlacementMarker378 if wordPlacementMarker379 you wordPlacementMarker380 have wordPlacementMarker381 been wordPlacementMarker382 paired wordPlacementMarker383 with wordPlacementMarker384 another wordPlacementMarker385 participant wordPlacementMarker386 before 
p126
aa(lp127
F178.039
aF178.19
aV  wordPlacementMarker387 then wordPlacementMarker388 you wordPlacementMarker389 will wordPlacementMarker390 never wordPlacementMarker391 be wordPlacementMarker392 paired wordPlacementMarker393 with wordPlacementMarker394 this wordPlacementMarker395 same wordPlacementMarker396 participant wordPlacementMarker397 in wordPlacementMarker398 another wordPlacementMarker399 match wordPlacementMarker400 again  
p128
aa(lp129
F182.193
aF183.382
aV wordPlacementMarker401 You wordPlacementMarker402 will wordPlacementMarker403 remain wordPlacementMarker404 anonymous wordPlacementMarker405 throughout wordPlacementMarker406 the wordPlacementMarker407 experiment  
p130
aa(lp131
F185.873
aF187.057
aV wordPlacementMarker408 You wordPlacementMarker409 will wordPlacementMarker410 not wordPlacementMarker411 know wordPlacementMarker412 the wordPlacementMarker413 identity wordPlacementMarker414 of wordPlacementMarker415 the wordPlacementMarker416 subject wordPlacementMarker417 that wordPlacementMarker418 you wordPlacementMarker419 are wordPlacementMarker420 matched wordPlacementMarker421 with 
p132
aa(lp133
F190.16
aF190.343
aV  wordPlacementMarker422 and wordPlacementMarker423 the wordPlacementMarker424 subject wordPlacementMarker425 that wordPlacementMarker426 you wordPlacementMarker427 are wordPlacementMarker428 matched wordPlacementMarker429 with wordPlacementMarker430 will wordPlacementMarker431 not wordPlacementMarker432 know wordPlacementMarker433 your wordPlacementMarker434 identity  
p134
aa(lp135
F193.555
aF194.739
aV wordPlacementMarker435 The wordPlacementMarker436 choices wordPlacementMarker437 made wordPlacementMarker438 by wordPlacementMarker439 you 
p136
aa(lp137
F196.162
aF196.35
aV  wordPlacementMarker440 and wordPlacementMarker441 the wordPlacementMarker442 subject wordPlacementMarker443 that wordPlacementMarker444 you wordPlacementMarker445 are wordPlacementMarker446 matched wordPlacementMarker447 with 
p138
aa(lp139
F198.141
aF198.336
aV  wordPlacementMarker448 have wordPlacementMarker449 no wordPlacementMarker450 effect wordPlacementMarker451 on wordPlacementMarker452 the wordPlacementMarker453 payoffs wordPlacementMarker454 of wordPlacementMarker455 other wordPlacementMarker456 pairs wordPlacementMarker457 of wordPlacementMarker458 subjects 
p140
aa(lp141
F201.427
aF201.629
aV  wordPlacementMarker459 and wordPlacementMarker460 vice wordPlacementMarker461 versa  
p142
aa(lp143
F202.581
aF203.752
aV wordPlacementMarker462 You wordPlacementMarker463 will wordPlacementMarker464 remain wordPlacementMarker465 matched wordPlacementMarker466 with wordPlacementMarker467 this wordPlacementMarker468 same wordPlacementMarker469 subject wordPlacementMarker470 until wordPlacementMarker471 the wordPlacementMarker472 end wordPlacementMarker473 of wordPlacementMarker474 the wordPlacementMarker475 match  
p144
aa(lp145
F207.106
aF208.31
aV wordPlacementMarker476 After wordPlacementMarker477 you wordPlacementMarker478 and wordPlacementMarker479 the wordPlacementMarker480 subject wordPlacementMarker481 that wordPlacementMarker482 you wordPlacementMarker483 are wordPlacementMarker484 matched wordPlacementMarker485 with wordPlacementMarker486 have wordPlacementMarker487 finished wordPlacementMarker488 the wordPlacementMarker489 match 
p146
aa(lp147
F211.931
aF212.143
aV  wordPlacementMarker490 please wordPlacementMarker491 wait wordPlacementMarker492 quietly wordPlacementMarker493 for wordPlacementMarker494 all wordPlacementMarker495 pairs wordPlacementMarker496 to wordPlacementMarker497 finish wordPlacementMarker498 their wordPlacementMarker499 match  
p148
aa(lp149
F215.174
aF216.372
aV wordPlacementMarker500 Once wordPlacementMarker501 all wordPlacementMarker502 pairs wordPlacementMarker503 have wordPlacementMarker504 finished wordPlacementMarker505 their wordPlacementMarker506 match 
p150
aa(lp151
F218.451
aF218.644
aV  wordPlacementMarker507 you wordPlacementMarker508 will wordPlacementMarker509 be wordPlacementMarker510 randomly wordPlacementMarker511 re matched wordPlacementMarker512 with wordPlacementMarker513 another wordPlacementMarker514 subject wordPlacementMarker515 that wordPlacementMarker516 you wordPlacementMarker517 have wordPlacementMarker518 not wordPlacementMarker519 been wordPlacementMarker520 matched wordPlacementMarker521 with wordPlacementMarker522 yet 
p152
aa(lp153
F222.879
aF223.059
aV  wordPlacementMarker523 and wordPlacementMarker524 the wordPlacementMarker525 next wordPlacementMarker526 match wordPlacementMarker527 will wordPlacementMarker528 begin  
p154
aa(lp155
F224.624
aF226.297
aV wordPlacementMarker529 Experimental wordPlacementMarker530 Interface 
p156
aa(lp157
F227.809
aF228.499
aV wordPlacementMarker531 Next 
p158
aa(lp159
F229.107
aF229.288
aV  wordPlacementMarker532 we wordPlacementMarker533 will wordPlacementMarker534 go wordPlacementMarker535 over wordPlacementMarker536 the wordPlacementMarker537 experimental wordPlacementMarker538 interface  
p160
aa(lp161
F231.611
aF232.794
aV wordPlacementMarker539 The wordPlacementMarker540 experimental wordPlacementMarker541 interface wordPlacementMarker542 consists wordPlacementMarker543 of wordPlacementMarker544 five wordPlacementMarker545 components 
p162
aa(lp163
F235.992
aF236.684
aV wordPlacementMarker546 one  
p164
aa(lp165
F237.159
aF238.846
aV wordPlacementMarker547 The wordPlacementMarker548 payoff wordPlacementMarker549 table wordPlacementMarker550 is wordPlacementMarker551 displayed wordPlacementMarker552 at wordPlacementMarker553 the wordPlacementMarker554 top wordPlacementMarker555 left wordPlacementMarker556 of wordPlacementMarker557 the wordPlacementMarker558 screen  
p166
aa(lp167
F242.239
aF243.418
aV wordPlacementMarker559 The wordPlacementMarker560 payoff wordPlacementMarker561 table wordPlacementMarker562 has wordPlacementMarker563 your wordPlacementMarker564 choices 
p168
aa(lp169
F245.465
aF246.147
aV wordPlacementMarker565  the wordPlacementMarker566 rows 
p170
aa(lp171
F246.885
aF247.071
aV  wordPlacementMarker567 U 
p172
aa(lp173
F247.569
aF247.754
aV  wordPlacementMarker568 and wordPlacementMarker569 D  
p174
aa(lp175
F248.289
aF248.983
aV wordPlacementMarker570 and wordPlacementMarker571 the wordPlacementMarker572 choices wordPlacementMarker573 of wordPlacementMarker574 the wordPlacementMarker575 subject wordPlacementMarker576 that wordPlacementMarker577 you wordPlacementMarker578 are wordPlacementMarker579 matched wordPlacementMarker580 with 
p176
aa(lp177
F251.628
aF252.321
aV wordPlacementMarker581  the wordPlacementMarker582 columns 
p178
aa(lp179
F253.179
aF253.366
aV  wordPlacementMarker583 L 
p180
aa(lp181
F253.802
aF253.994
aV  wordPlacementMarker584 and wordPlacementMarker585 R   
p182
aa(lp183
F254.541
aF256.224
aV wordPlacementMarker586 For wordPlacementMarker587 any wordPlacementMarker588 combination wordPlacementMarker589 of wordPlacementMarker590 choices wordPlacementMarker591 for wordPlacementMarker592 you wordPlacementMarker593 and wordPlacementMarker594 the wordPlacementMarker595 subject wordPlacementMarker596 that wordPlacementMarker597 you wordPlacementMarker598 are wordPlacementMarker599 matched wordPlacementMarker600 with 
p184
aa(lp185
F260.2
aF260.384
aV  wordPlacementMarker601 there wordPlacementMarker602 is wordPlacementMarker603 a wordPlacementMarker604 payoff  
p186
aa(lp187
F261.383
aF262.572
aV wordPlacementMarker605 Your wordPlacementMarker606 payoff wordPlacementMarker607 is wordPlacementMarker608 on wordPlacementMarker609 the wordPlacementMarker610 left 
p188
aa(lp189
F264.014
aF264.202
aV  wordPlacementMarker611 and wordPlacementMarker612 the wordPlacementMarker613 payoff wordPlacementMarker614 for wordPlacementMarker615 the wordPlacementMarker616 subject wordPlacementMarker617 that wordPlacementMarker618 you wordPlacementMarker619 are wordPlacementMarker620 matched wordPlacementMarker621 with wordPlacementMarker622 is wordPlacementMarker623 on wordPlacementMarker624 the wordPlacementMarker625 right  
p190
aa(lp191
F267.395
aF268.586
aV wordPlacementMarker626 For wordPlacementMarker627 example 
p192
aa(lp193
F269.54
aF269.7
aV  wordPlacementMarker628 if wordPlacementMarker629 you wordPlacementMarker630 choose wordPlacementMarker631 D 
p194
aa(lp195
F270.706
aF270.898
aV  wordPlacementMarker632 and wordPlacementMarker633 the wordPlacementMarker634 subject wordPlacementMarker635 that wordPlacementMarker636 you wordPlacementMarker637 are wordPlacementMarker638 matched wordPlacementMarker639 with wordPlacementMarker640 chooses wordPlacementMarker641 L 
p196
aa(lp197
F273.581
aF273.759
aV  wordPlacementMarker642 then wordPlacementMarker643 your wordPlacementMarker644 payoff wordPlacementMarker645 is wordPlacementMarker646 six 
p198
aa(lp199
F275.335
aF275.526
aV  wordPlacementMarker647 and wordPlacementMarker648 the wordPlacementMarker649 payoff wordPlacementMarker650 for wordPlacementMarker651 the wordPlacementMarker652 subject wordPlacementMarker653 that wordPlacementMarker654 you wordPlacementMarker655 are wordPlacementMarker656 matched wordPlacementMarker657 with wordPlacementMarker658 is wordPlacementMarker659 three  
p200
aa(lp201
F278.551
aF279.742
aV wordPlacementMarker660 The wordPlacementMarker661 payoff wordPlacementMarker662 table wordPlacementMarker663 in wordPlacementMarker664 the wordPlacementMarker665 experiment wordPlacementMarker666 today wordPlacementMarker667 will wordPlacementMarker668 be wordPlacementMarker669 different wordPlacementMarker670 than wordPlacementMarker671 the wordPlacementMarker672 one wordPlacementMarker673 displayed wordPlacementMarker674 here  
p202
aa(lp203
F284.317
aF285.521
aV wordPlacementMarker675 In wordPlacementMarker676 addition 
p204
aa(lp205
F286.348
aF286.531
aV  wordPlacementMarker677 the wordPlacementMarker678 payoffs wordPlacementMarker679 will wordPlacementMarker680 remain wordPlacementMarker681 the wordPlacementMarker682 same wordPlacementMarker683 for wordPlacementMarker684 all wordPlacementMarker685 periods wordPlacementMarker686 in wordPlacementMarker687 a wordPlacementMarker688 single wordPlacementMarker689 match 
p206
aa(lp207
F289.945
aF290.146
aV  wordPlacementMarker690 but wordPlacementMarker691 may wordPlacementMarker692 change wordPlacementMarker693 in wordPlacementMarker694 different wordPlacementMarker695 matches  
p208
aa(lp209
F292.004
aF293.217
aV wordPlacementMarker696 two  
p210
aa(lp211
F293.639
aF295.296
aV wordPlacementMarker697 The wordPlacementMarker698 summary wordPlacementMarker699 of wordPlacementMarker700 the wordPlacementMarker701 current wordPlacementMarker702 period wordPlacementMarker703 is wordPlacementMarker704 shown wordPlacementMarker705 in wordPlacementMarker706 the wordPlacementMarker707 top wordPlacementMarker708 right  
p212
aa(lp213
F298.431
aF299.675
aV wordPlacementMarker709 three  
p214
aa(lp215
F300.166
aF301.853
aV wordPlacementMarker710 The wordPlacementMarker711 summary wordPlacementMarker712 of wordPlacementMarker713 all wordPlacementMarker714 periods wordPlacementMarker715 is wordPlacementMarker716 shown wordPlacementMarker717 below wordPlacementMarker718 that  
p216
aa(lp217
F304.483
aF305.675
aV wordPlacementMarker719 four  
p218
aa(lp219
F306.24
aF307.954
aV wordPlacementMarker720 The wordPlacementMarker721 history wordPlacementMarker722 of wordPlacementMarker723 play wordPlacementMarker724 is wordPlacementMarker725 displayed wordPlacementMarker726 in wordPlacementMarker727 the wordPlacementMarker728 bottom wordPlacementMarker729 half wordPlacementMarker730 of wordPlacementMarker731 the wordPlacementMarker732 screen  
p220
aa(lp221
F311.468
aF312.654
aV wordPlacementMarker733 five  
p222
aa(lp223
F313.253
aF314.962
aV wordPlacementMarker734 Finally 
p224
aa(lp225
F315.647
aF315.824
aV  wordPlacementMarker735 the wordPlacementMarker736 current wordPlacementMarker737 status wordPlacementMarker738 is wordPlacementMarker739 displayed wordPlacementMarker740 across wordPlacementMarker741 the wordPlacementMarker742 middle wordPlacementMarker743 of wordPlacementMarker744 the wordPlacementMarker745 screen  
p226
aa(lp227
F319.308
aF320.488
aV wordPlacementMarker746 The wordPlacementMarker747 current wordPlacementMarker748 status wordPlacementMarker749 tells wordPlacementMarker750 you wordPlacementMarker751 what wordPlacementMarker752 to wordPlacementMarker753 do wordPlacementMarker754 at wordPlacementMarker755 any wordPlacementMarker756 point wordPlacementMarker757 during wordPlacementMarker758 the wordPlacementMarker759 experiment  
p228
aa(lp229
F324.305
aF325.991
aV wordPlacementMarker760 Specific wordPlacementMarker761 Instructions wordPlacementMarker762 for wordPlacementMarker763 Each wordPlacementMarker764 Period 
p230
aa(lp231
F328.288
aF328.991
aV wordPlacementMarker765 At wordPlacementMarker766 any wordPlacementMarker767 point wordPlacementMarker768 during wordPlacementMarker769 a wordPlacementMarker770 period 
p232
aa(lp233
F330.607
aF330.767
aV  wordPlacementMarker771 you wordPlacementMarker772 will wordPlacementMarker773 see wordPlacementMarker774 one wordPlacementMarker775 of wordPlacementMarker776 three wordPlacementMarker777 status wordPlacementMarker778 messages 
p234
aa(lp235
F333.316
aF333.985
aV wordPlacementMarker779 Status wordPlacementMarker780  number one 
p236
aa(lp237
F335.308
aF336.011
aV wordPlacementMarker781 Please wordPlacementMarker782 select wordPlacementMarker783 My wordPlacementMarker784 Choice 
p238
aa(lp239
F337.367
aF338.062
aV wordPlacementMarker785  U 
p240
aa(lp241
F338.511
aF338.716
aV D  
p242
aa(lp243
F339.146
aF339.856
aV wordPlacementMarker786 and wordPlacementMarker787 your wordPlacementMarker788 guess wordPlacementMarker789 for wordPlacementMarker790 Other's wordPlacementMarker791 Choice 
p244
aa(lp245
F341.5
aF342.19
aV wordPlacementMarker792  L 
p246
aa(lp247
F342.598
aF342.79
aV R   
p248
aa(lp249
F343.199
aF344.886
aV wordPlacementMarker793 When wordPlacementMarker794 you wordPlacementMarker795 see wordPlacementMarker796 this wordPlacementMarker797 status wordPlacementMarker798 message 
p250
aa(lp251
F346.649
aF346.839
aV  wordPlacementMarker799 you wordPlacementMarker800 need wordPlacementMarker801 to wordPlacementMarker802 do wordPlacementMarker803 two wordPlacementMarker804 things  
p252
aa(lp253
F348.413
aF349.606
aV wordPlacementMarker805 one  
p254
aa(lp255
F350.079
aF351.769
aV wordPlacementMarker806 Select wordPlacementMarker807 a wordPlacementMarker808 row wordPlacementMarker809 for wordPlacementMarker810 your wordPlacementMarker811 choice 
p256
aa(lp257
F353.352
aF354.041
aV wordPlacementMarker812  in wordPlacementMarker813 this wordPlacementMarker814 example wordPlacementMarker815 either wordPlacementMarker816 U 
p258
aa(lp259
F355.537
aF355.727
aV  wordPlacementMarker817 or wordPlacementMarker818 D   
p260
aa(lp261
F356.301
aF357.998
aV wordPlacementMarker819 Once wordPlacementMarker820 you wordPlacementMarker821 have wordPlacementMarker822 selected wordPlacementMarker823 a wordPlacementMarker824 row 
p262
aa(lp263
F359.616
aF359.797
aV  wordPlacementMarker825 it wordPlacementMarker826 will wordPlacementMarker827 be wordPlacementMarker828 outlined 
p264
aa(lp265
F360.953
aF361.14
aV  wordPlacementMarker829 and wordPlacementMarker830 the wordPlacementMarker831 label wordPlacementMarker832 My wordPlacementMarker833 Choice wordPlacementMarker834 will wordPlacementMarker835 be wordPlacementMarker836 added  
p266
aa(lp267
F363.046
aF364.227
aV wordPlacementMarker837 My wordPlacementMarker838 choice wordPlacementMarker839 will wordPlacementMarker840 also wordPlacementMarker841 be wordPlacementMarker842 updated wordPlacementMarker843 on wordPlacementMarker844 the wordPlacementMarker845 period wordPlacementMarker846 summary  
p268
aa(lp269
F367.129
aF368.328
aV wordPlacementMarker847 two  
p270
aa(lp271
F368.736
aF370.406
aV wordPlacementMarker848 Select wordPlacementMarker849 the wordPlacementMarker850 column wordPlacementMarker851 that wordPlacementMarker852 you wordPlacementMarker853 think wordPlacementMarker854 the wordPlacementMarker855 subject wordPlacementMarker856 that wordPlacementMarker857 you wordPlacementMarker858 are wordPlacementMarker859 matched wordPlacementMarker860 with wordPlacementMarker861 will wordPlacementMarker862 select 
p272
aa(lp273
F374.121
aF374.795
aV wordPlacementMarker863  in wordPlacementMarker864 this wordPlacementMarker865 example wordPlacementMarker866 either wordPlacementMarker867 L 
p274
aa(lp275
F376.287
aF376.451
aV  wordPlacementMarker868 or wordPlacementMarker869 R   
p276
aa(lp277
F376.955
aF378.62
aV wordPlacementMarker870 Once wordPlacementMarker871 you wordPlacementMarker872 have wordPlacementMarker873 selected wordPlacementMarker874 a wordPlacementMarker875 column 
p278
aa(lp279
F380.353
aF380.535
aV  wordPlacementMarker876 it wordPlacementMarker877 will wordPlacementMarker878 be wordPlacementMarker879 outlined 
p280
aa(lp281
F381.703
aF381.877
aV  wordPlacementMarker880 and wordPlacementMarker881 the wordPlacementMarker882 label wordPlacementMarker883 My wordPlacementMarker884 Guess wordPlacementMarker885 will wordPlacementMarker886 be wordPlacementMarker887 added  
p282
aa(lp283
F383.6
aF384.783
aV wordPlacementMarker888 My wordPlacementMarker889 guess wordPlacementMarker890 will wordPlacementMarker891 also wordPlacementMarker892 be wordPlacementMarker893 updated wordPlacementMarker894 on wordPlacementMarker895 the wordPlacementMarker896 period wordPlacementMarker897 summary  
p284
aa(lp285
F387.585
aF388.766
aV wordPlacementMarker898 If wordPlacementMarker899 you wordPlacementMarker900 correctly wordPlacementMarker901 guess wordPlacementMarker902 the wordPlacementMarker903 choice wordPlacementMarker904 of wordPlacementMarker905 the wordPlacementMarker906 subject wordPlacementMarker907 that wordPlacementMarker908 you wordPlacementMarker909 are wordPlacementMarker910 matched wordPlacementMarker911 with wordPlacementMarker912 in wordPlacementMarker913 a wordPlacementMarker914 given wordPlacementMarker915 period 
p286
aa(lp287
F393.12
aF393.301
aV  wordPlacementMarker916 then wordPlacementMarker917 you wordPlacementMarker918 will wordPlacementMarker919 earn wordPlacementMarker920 a wordPlacementMarker921 raffle wordPlacementMarker922 ticket  
p288
aa(lp289
F394.985
aF396.169
aV wordPlacementMarker923 At wordPlacementMarker924 the wordPlacementMarker925 end wordPlacementMarker926 of wordPlacementMarker927 the wordPlacementMarker928 experiment 
p290
aa(lp291
F397.813
aF398.0
aV  wordPlacementMarker929 one wordPlacementMarker930 raffle wordPlacementMarker931 ticket wordPlacementMarker932 will wordPlacementMarker933 be wordPlacementMarker934 randomly wordPlacementMarker935 selected 
p292
aa(lp293
F400.551
aF400.73
aV  wordPlacementMarker936 and wordPlacementMarker937 the wordPlacementMarker938 winner wordPlacementMarker939 will wordPlacementMarker940 receive wordPlacementMarker941 a wordPlacementMarker942 bonus wordPlacementMarker943 of wordPlacementMarker944 five wordPlacementMarker945 dollars  
p294
aa(lp295
F403.456
aF404.641
aV wordPlacementMarker946 Therefore 
p296
aa(lp297
F405.397
aF405.572
aV  wordPlacementMarker947 the wordPlacementMarker948 more wordPlacementMarker949 correct wordPlacementMarker950 guesses wordPlacementMarker951 you wordPlacementMarker952 make 
p298
aa(lp299
F407.613
aF407.798
aV  wordPlacementMarker953 the wordPlacementMarker954 more wordPlacementMarker955 likely wordPlacementMarker956 you wordPlacementMarker957 are wordPlacementMarker958 to wordPlacementMarker959 win wordPlacementMarker960 the wordPlacementMarker961 five wordPlacementMarker962 dollars wordPlacementMarker963 bonus  
p300
aa(lp301
F410.727
aF411.912
aV wordPlacementMarker964 Status wordPlacementMarker965  number two 
p302
aa(lp303
F413.113
aF413.82
aV wordPlacementMarker966 Please wordPlacementMarker967 wait wordPlacementMarker968 for wordPlacementMarker969 the wordPlacementMarker970 other wordPlacementMarker971 subject wordPlacementMarker972 to wordPlacementMarker973 finish wordPlacementMarker974 making wordPlacementMarker975 their wordPlacementMarker976 choices  
p304
aa(lp305
F416.957
aF418.119
aV wordPlacementMarker977 When wordPlacementMarker978 you wordPlacementMarker979 see wordPlacementMarker980 this wordPlacementMarker981 status wordPlacementMarker982 message 
p306
aa(lp307
F419.889
aF420.094
aV  wordPlacementMarker983 please wordPlacementMarker984 wait wordPlacementMarker985 patiently wordPlacementMarker986 for wordPlacementMarker987 the wordPlacementMarker988 subject wordPlacementMarker989 that wordPlacementMarker990 you wordPlacementMarker991 are wordPlacementMarker992 matched wordPlacementMarker993 with wordPlacementMarker994 to wordPlacementMarker995 finish wordPlacementMarker996 making wordPlacementMarker997 their wordPlacementMarker998 choices  
p308
aa(lp309
F424.954
aF426.134
aV wordPlacementMarker999 If wordPlacementMarker1000 the wordPlacementMarker1001 other wordPlacementMarker1002 subject wordPlacementMarker1003 makes wordPlacementMarker1004 their wordPlacementMarker1005 choices wordPlacementMarker1006 before wordPlacementMarker1007 you wordPlacementMarker1008 in wordPlacementMarker1009 a wordPlacementMarker1010 specific wordPlacementMarker1011 period 
p310
aa(lp311
F430.134
aF430.297
aV  wordPlacementMarker1012 you wordPlacementMarker1013 might wordPlacementMarker1014 not wordPlacementMarker1015 see wordPlacementMarker1016 this wordPlacementMarker1017 status  
p312
aa(lp313
F432.043
aF433.228
aV wordPlacementMarker1018 Status wordPlacementMarker1019  number three 
p314
aa(lp315
F434.566
aF435.281
aV wordPlacementMarker1020 Click wordPlacementMarker1021 on wordPlacementMarker1022 the wordPlacementMarker1023 payoffs wordPlacementMarker1024 for wordPlacementMarker1025 this wordPlacementMarker1026 period 
p316
aa(lp317
F437.169
aF437.867
aV wordPlacementMarker1027  in wordPlacementMarker1028 green  
p318
aa(lp319
F438.569
aF439.228
aV wordPlacementMarker1029 in wordPlacementMarker1030 the wordPlacementMarker1031 game wordPlacementMarker1032 table wordPlacementMarker1033 to wordPlacementMarker1034 move wordPlacementMarker1035 to wordPlacementMarker1036 next wordPlacementMarker1037 period  
p320
aa(lp321
F441.62
aF442.808
aV wordPlacementMarker1038 When wordPlacementMarker1039 you wordPlacementMarker1040 see wordPlacementMarker1041 this wordPlacementMarker1042 status wordPlacementMarker1043 message 
p322
aa(lp323
F444.583
aF444.761
aV  wordPlacementMarker1044 all wordPlacementMarker1045 choices wordPlacementMarker1046 for wordPlacementMarker1047 the wordPlacementMarker1048 period wordPlacementMarker1049 have wordPlacementMarker1050 been wordPlacementMarker1051 made 
p324
aa(lp325
F447.126
aF447.286
aV  wordPlacementMarker1052 and wordPlacementMarker1053 you wordPlacementMarker1054 can wordPlacementMarker1055 view wordPlacementMarker1056 the wordPlacementMarker1057 final wordPlacementMarker1058 results  
p326
aa(lp327
F449.26
aF450.449
aV wordPlacementMarker1059 The wordPlacementMarker1060 column wordPlacementMarker1061 selected wordPlacementMarker1062 by wordPlacementMarker1063 the wordPlacementMarker1064 subject wordPlacementMarker1065 that wordPlacementMarker1066 you wordPlacementMarker1067 are wordPlacementMarker1068 matched wordPlacementMarker1069 with wordPlacementMarker1070 is wordPlacementMarker1071 highlighted wordPlacementMarker1072 and wordPlacementMarker1073 labeled wordPlacementMarker1074 Other's wordPlacementMarker1075 Choice  
p328
aa(lp329
F455.409
aF456.608
aV wordPlacementMarker1076 If wordPlacementMarker1077 your wordPlacementMarker1078 guess wordPlacementMarker1079 about wordPlacementMarker1080 their wordPlacementMarker1081 choice wordPlacementMarker1082 was wordPlacementMarker1083 correct 
p330
aa(lp331
F458.825
aF459.008
aV  wordPlacementMarker1084 then wordPlacementMarker1085 the wordPlacementMarker1086 column wordPlacementMarker1087 will wordPlacementMarker1088 be wordPlacementMarker1089 highlighted wordPlacementMarker1090 in wordPlacementMarker1091 yellow  
p332
aa(lp333
F461.162
aF462.34
aV wordPlacementMarker1092 The wordPlacementMarker1093 entry wordPlacementMarker1094 of wordPlacementMarker1095 the wordPlacementMarker1096 payoff wordPlacementMarker1097 table wordPlacementMarker1098 that wordPlacementMarker1099 is wordPlacementMarker1100 at wordPlacementMarker1101 the wordPlacementMarker1102 intersection wordPlacementMarker1103 of wordPlacementMarker1104 the wordPlacementMarker1105 row wordPlacementMarker1106 that wordPlacementMarker1107 you wordPlacementMarker1108 selected 
p334
aa(lp335
F466.905
aF467.088
aV  wordPlacementMarker1109 and wordPlacementMarker1110 the wordPlacementMarker1111 column wordPlacementMarker1112 that wordPlacementMarker1113 the wordPlacementMarker1114 subject wordPlacementMarker1115 that wordPlacementMarker1116 you wordPlacementMarker1117 are wordPlacementMarker1118 matched wordPlacementMarker1119 with wordPlacementMarker1120 selected 
p336
aa(lp337
F470.057
aF470.233
aV  wordPlacementMarker1121 is wordPlacementMarker1122 highlighted wordPlacementMarker1123 in wordPlacementMarker1124 green  
p338
aa(lp339
F471.508
aF472.661
aV wordPlacementMarker1125 This wordPlacementMarker1126 entry wordPlacementMarker1127 displays wordPlacementMarker1128 the wordPlacementMarker1129 payoffs wordPlacementMarker1130 for wordPlacementMarker1131 the wordPlacementMarker1132 current wordPlacementMarker1133 period  
p340
aa(lp341
F475.672
aF476.852
aV wordPlacementMarker1134 Your wordPlacementMarker1135 payoff wordPlacementMarker1136 for wordPlacementMarker1137 the wordPlacementMarker1138 period wordPlacementMarker1139 is wordPlacementMarker1140 displayed wordPlacementMarker1141 on wordPlacementMarker1142 the wordPlacementMarker1143 left 
p342
aa(lp343
F479.701
aF479.889
aV  wordPlacementMarker1144 and wordPlacementMarker1145 the wordPlacementMarker1146 payoff wordPlacementMarker1147 of wordPlacementMarker1148 the wordPlacementMarker1149 subject wordPlacementMarker1150 that wordPlacementMarker1151 you wordPlacementMarker1152 are wordPlacementMarker1153 matched wordPlacementMarker1154 with wordPlacementMarker1155 is wordPlacementMarker1156 displayed wordPlacementMarker1157 on wordPlacementMarker1158 the wordPlacementMarker1159 right  
p344
aa(lp345
F483.662
aF484.834
aV wordPlacementMarker1160 At wordPlacementMarker1161 this wordPlacementMarker1162 point 
p346
aa(lp347
F485.569
aF485.75
aV  wordPlacementMarker1163 the wordPlacementMarker1164 period wordPlacementMarker1165 summary wordPlacementMarker1166 has wordPlacementMarker1167 been wordPlacementMarker1168 updated wordPlacementMarker1169 to wordPlacementMarker1170 include wordPlacementMarker1171 the wordPlacementMarker1172 choice wordPlacementMarker1173 of wordPlacementMarker1174 the wordPlacementMarker1175 subject wordPlacementMarker1176 that wordPlacementMarker1177 you wordPlacementMarker1178 are wordPlacementMarker1179 matched wordPlacementMarker1180 with 
p348
aa(lp349
F490.556
aF490.741
aV  wordPlacementMarker1181 and wordPlacementMarker1182 the wordPlacementMarker1183 current wordPlacementMarker1184 payoffs wordPlacementMarker1185 for wordPlacementMarker1186 this wordPlacementMarker1187 period  
p350
aa(lp351
F492.798
aF493.988
aV wordPlacementMarker1188 These wordPlacementMarker1189 choices wordPlacementMarker1190 have wordPlacementMarker1191 also wordPlacementMarker1192 been wordPlacementMarker1193 added wordPlacementMarker1194 to wordPlacementMarker1195 the wordPlacementMarker1196 history wordPlacementMarker1197 of wordPlacementMarker1198 play wordPlacementMarker1199 at wordPlacementMarker1200 the wordPlacementMarker1201 bottom wordPlacementMarker1202 of wordPlacementMarker1203 the wordPlacementMarker1204 screen  
p352
aa(lp353
F498.397
aF499.603
aV wordPlacementMarker1205 Finally 
p354
aa(lp355
F500.286
aF500.463
aV  wordPlacementMarker1206 the wordPlacementMarker1207 overall wordPlacementMarker1208 summary wordPlacementMarker1209 has wordPlacementMarker1210 been wordPlacementMarker1211 updated wordPlacementMarker1212 to wordPlacementMarker1213 include wordPlacementMarker1214 the wordPlacementMarker1215 total wordPlacementMarker1216 payoffs wordPlacementMarker1217 including wordPlacementMarker1218 this wordPlacementMarker1219 period 
p356
aa(lp357
F505.189
aF505.38
aV  wordPlacementMarker1220 as wordPlacementMarker1221 well wordPlacementMarker1222 as wordPlacementMarker1223 the wordPlacementMarker1224 number wordPlacementMarker1225 of wordPlacementMarker1226 correct wordPlacementMarker1227 guesses wordPlacementMarker1228 you wordPlacementMarker1229 have wordPlacementMarker1230 made wordPlacementMarker1231 about wordPlacementMarker1232 the wordPlacementMarker1233 choice wordPlacementMarker1234 of wordPlacementMarker1235 the wordPlacementMarker1236 subject wordPlacementMarker1237 that wordPlacementMarker1238 you wordPlacementMarker1239 are wordPlacementMarker1240 matched wordPlacementMarker1241 with  
p358
aa(lp359
F510.744
aF511.929
aV wordPlacementMarker1242 To wordPlacementMarker1243 move wordPlacementMarker1244 on wordPlacementMarker1245 to wordPlacementMarker1246 the wordPlacementMarker1247 next wordPlacementMarker1248 period 
p360
aa(lp361
F513.533
aF513.709
aV  wordPlacementMarker1249 you wordPlacementMarker1250 need wordPlacementMarker1251 to wordPlacementMarker1252 click wordPlacementMarker1253 the wordPlacementMarker1254 payoffs wordPlacementMarker1255 for wordPlacementMarker1256 this wordPlacementMarker1257 period wordPlacementMarker1258 in wordPlacementMarker1259 the wordPlacementMarker1260 game wordPlacementMarker1261 table 
p362
aa(lp363
F516.935
aF517.104
aV  wordPlacementMarker1262 which wordPlacementMarker1263 have wordPlacementMarker1264 been wordPlacementMarker1265 highlighted wordPlacementMarker1266 in wordPlacementMarker1267 green  
p364
aa(lp365
F518.725
aF523.378
aV wordPlacementMarker1268 Number wordPlacementMarker1269 of wordPlacementMarker1270 Periods wordPlacementMarker1271 Per wordPlacementMarker1272 Match 
p366
aa(lp367
F525.011
aF525.699
aV wordPlacementMarker1273 The wordPlacementMarker1274 number wordPlacementMarker1275 of wordPlacementMarker1276 periods wordPlacementMarker1277 in wordPlacementMarker1278 each wordPlacementMarker1279 match wordPlacementMarker1280 will wordPlacementMarker1281 be wordPlacementMarker1282 determined wordPlacementMarker1283 randomly wordPlacementMarker1284 using wordPlacementMarker1285 the wordPlacementMarker1286 following wordPlacementMarker1287 procedure  
p368
aa(lp369
F530.499
aF531.691
aV wordPlacementMarker1288 At wordPlacementMarker1289 the wordPlacementMarker1290 end wordPlacementMarker1291 of wordPlacementMarker1292 each wordPlacementMarker1293 period 
p370
aa(lp371
F533.137
aF533.318
aV  wordPlacementMarker1294 a wordPlacementMarker1295 number wordPlacementMarker1296 will wordPlacementMarker1297 be wordPlacementMarker1298 chosen wordPlacementMarker1299 randomly wordPlacementMarker1300 from wordPlacementMarker1301 the wordPlacementMarker1302 set wordPlacementMarker1303 of wordPlacementMarker1304 numbers wordPlacementMarker1305  
p372
aa(lp373
F536.531
aF536.718
aV one 
p374
aa(lp375
F537.273
aF537.474
aV two 
p376
aa(lp377
F537.978
aF538.197
aV three 
p378
aa(lp379
F538.782
aF538.965
aV  wordPlacementMarker1306 up wordPlacementMarker1307 to 
p380
aa(lp381
F539.587
aF539.75
aV  wordPlacementMarker1308 ninety eight 
p382
aa(lp383
F540.575
aF540.758
aV  wordPlacementMarker1309 ninety nine 
p384
aa(lp385
F541.714
aF541.892
aV  wordPlacementMarker1310 one hundred 
p386
aa(lp387
F542.639
aF542.795
aV  wordPlacementMarker1311 where wordPlacementMarker1312 each wordPlacementMarker1313 number wordPlacementMarker1314 is wordPlacementMarker1315 equally wordPlacementMarker1316 likely  
p388
aa(lp389
F544.779
aF545.952
aV wordPlacementMarker1317 If wordPlacementMarker1318 the wordPlacementMarker1319 number wordPlacementMarker1320 is wordPlacementMarker1321 one 
p390
aa(lp391
F547.282
aF547.454
aV  wordPlacementMarker1322 then wordPlacementMarker1323 the wordPlacementMarker1324 match wordPlacementMarker1325 will wordPlacementMarker1326 end  
p392
aa(lp393
F548.709
aF549.88
aV wordPlacementMarker1327 If wordPlacementMarker1328 the wordPlacementMarker1329 number wordPlacementMarker1330 is wordPlacementMarker1331 not wordPlacementMarker1332 one 
p394
aa(lp395
F551.424
aF551.604
aV  wordPlacementMarker1333 then wordPlacementMarker1334 the wordPlacementMarker1335 match wordPlacementMarker1336 will wordPlacementMarker1337 continue  
p396
aa(lp397
F553.219
aF554.4
aV wordPlacementMarker1338 The wordPlacementMarker1339 number wordPlacementMarker1340 will wordPlacementMarker1341 always wordPlacementMarker1342 be wordPlacementMarker1343 placed wordPlacementMarker1344 back wordPlacementMarker1345 into wordPlacementMarker1346 the wordPlacementMarker1347 set wordPlacementMarker1348 after wordPlacementMarker1349 it wordPlacementMarker1350 is wordPlacementMarker1351 drawn  
p398
aa(lp399
F557.839
aF559.015
aV wordPlacementMarker1352 Thus 
p400
aa(lp401
F559.526
aF559.699
aV  wordPlacementMarker1353 in wordPlacementMarker1354 any wordPlacementMarker1355 period wordPlacementMarker1356 there wordPlacementMarker1357 is wordPlacementMarker1358 a wordPlacementMarker1359 one wordPlacementMarker1360 percent wordPlacementMarker1361 CHANCE wordPlacementMarker1362 that wordPlacementMarker1363 the wordPlacementMarker1364 match wordPlacementMarker1365 will wordPlacementMarker1366 end 
p402
aa(lp403
F563.285
aF563.456
aV  wordPlacementMarker1367 and wordPlacementMarker1368 a wordPlacementMarker1369 ninety nine wordPlacementMarker1370 percent wordPlacementMarker1371 CHANCE wordPlacementMarker1372 that wordPlacementMarker1373 the wordPlacementMarker1374 match wordPlacementMarker1375 will wordPlacementMarker1376 have wordPlacementMarker1377 another wordPlacementMarker1378 period  
p404
aa(lp405
F567.027
aF568.189
aV wordPlacementMarker1379 Therefore 
p406
aa(lp407
F568.945
aF569.119
aV  wordPlacementMarker1380 the wordPlacementMarker1381 expected wordPlacementMarker1382 number wordPlacementMarker1383 of wordPlacementMarker1384 periods wordPlacementMarker1385 in wordPlacementMarker1386 each wordPlacementMarker1387 match wordPlacementMarker1388 will wordPlacementMarker1389 be wordPlacementMarker1390 one hundred  
p408
aa(lp409
F572.439
aF573.618
aV wordPlacementMarker1391 This wordPlacementMarker1392 procedure wordPlacementMarker1393 has wordPlacementMarker1394 been wordPlacementMarker1395 performed wordPlacementMarker1396 on wordPlacementMarker1397 the wordPlacementMarker1398 computer wordPlacementMarker1399 before wordPlacementMarker1400 the wordPlacementMarker1401 experiment  
p410
aa(lp411
F577.369
aF578.555
aV wordPlacementMarker1402 Therefore 
p412
aa(lp413
F579.308
aF579.483
aV  wordPlacementMarker1403 you wordPlacementMarker1404 will wordPlacementMarker1405 not wordPlacementMarker1406 see wordPlacementMarker1407 the wordPlacementMarker1408 number wordPlacementMarker1409 selected wordPlacementMarker1410 from wordPlacementMarker1411  
p414
aa(lp415
F581.446
aF581.629
aV one 
p416
aa(lp417
F582.173
aF582.372
aV two 
p418
aa(lp419
F582.88
aF583.093
aV three 
p420
aa(lp421
F583.678
aF583.863
aV  wordPlacementMarker1412 up wordPlacementMarker1413 to 
p422
aa(lp423
F584.47
aF584.648
aV  wordPlacementMarker1414 ninety eight 
p424
aa(lp425
F585.472
aF585.656
aV  wordPlacementMarker1415 ninety nine 
p426
aa(lp427
F586.625
aF586.801
aV  wordPlacementMarker1416 one hundred 
p428
aa(lp429
F587.466
aF588.676
aV wordPlacementMarker1417 To wordPlacementMarker1418 ensure wordPlacementMarker1419 that wordPlacementMarker1420 the wordPlacementMarker1421 length wordPlacementMarker1422 of wordPlacementMarker1423 the wordPlacementMarker1424 match wordPlacementMarker1425 is wordPlacementMarker1426 not wordPlacementMarker1427 dependent wordPlacementMarker1428 on wordPlacementMarker1429 your wordPlacementMarker1430 play 
p430
aa(lp431
F592.094
aF592.248
aV  wordPlacementMarker1431 the wordPlacementMarker1432 number wordPlacementMarker1433 of wordPlacementMarker1434 periods wordPlacementMarker1435 for wordPlacementMarker1436 each wordPlacementMarker1437 match wordPlacementMarker1438 has wordPlacementMarker1439 been wordPlacementMarker1440 written wordPlacementMarker1441 on wordPlacementMarker1442 the wordPlacementMarker1443 board wordPlacementMarker1444 before wordPlacementMarker1445 the wordPlacementMarker1446 experiment 
p432
aa(lp433
F596.534
aF596.709
aV  wordPlacementMarker1447 and wordPlacementMarker1448 will wordPlacementMarker1449 be wordPlacementMarker1450 uncovered wordPlacementMarker1451 at wordPlacementMarker1452 the wordPlacementMarker1453 end wordPlacementMarker1454 of wordPlacementMarker1455 the wordPlacementMarker1456 experiment  
p434
aa(lp435
F599.102
aF600.828
aV wordPlacementMarker1457 Payoffs 
p436
aa(lp437
F601.413
aF602.074
aV wordPlacementMarker1458 Your wordPlacementMarker1459 payment wordPlacementMarker1460 at wordPlacementMarker1461 the wordPlacementMarker1462 end wordPlacementMarker1463 of wordPlacementMarker1464 the wordPlacementMarker1465 experiment wordPlacementMarker1466 will wordPlacementMarker1467 contain wordPlacementMarker1468 the wordPlacementMarker1469 following 
p438
aa(lp439
F605.445
aF606.136
aV wordPlacementMarker1470 one  
p440
aa(lp441
F606.61
aF608.297
aV wordPlacementMarker1471 The wordPlacementMarker1472 five wordPlacementMarker1473 dollars wordPlacementMarker1474 show wordPlacementMarker1475 up wordPlacementMarker1476 fee  
p442
aa(lp443
F610.005
aF611.241
aV wordPlacementMarker1477 two  
p444
aa(lp445
F611.639
aF613.561
aV wordPlacementMarker1478 Payment wordPlacementMarker1479 for wordPlacementMarker1480 a wordPlacementMarker1481 randomly wordPlacementMarker1482 selected wordPlacementMarker1483 block wordPlacementMarker1484 of wordPlacementMarker1485 thirty wordPlacementMarker1486 periods  
p446
aa(lp447
F616.666
aF617.916
aV wordPlacementMarker1487 three  
p448
aa(lp449
F618.402
aF620.092
aV wordPlacementMarker1488 A wordPlacementMarker1489 bonus wordPlacementMarker1490 payment wordPlacementMarker1491 of wordPlacementMarker1492 five wordPlacementMarker1493 dollars wordPlacementMarker1494 if wordPlacementMarker1495 one wordPlacementMarker1496 of wordPlacementMarker1497 your wordPlacementMarker1498 raffle wordPlacementMarker1499 tickets wordPlacementMarker1500 is wordPlacementMarker1501 randomly wordPlacementMarker1502 selected wordPlacementMarker1503 at wordPlacementMarker1504 the wordPlacementMarker1505 end wordPlacementMarker1506 of wordPlacementMarker1507 the wordPlacementMarker1508 experiment  
p450
aa(lp451
F626.175
aF627.368
aV wordPlacementMarker1509 four  
p452
aa(lp453
F627.952
aF629.662
aV wordPlacementMarker1510 Payment wordPlacementMarker1511 for wordPlacementMarker1512 the wordPlacementMarker1513 additional wordPlacementMarker1514 tasks wordPlacementMarker1515 after wordPlacementMarker1516 the wordPlacementMarker1517 main wordPlacementMarker1518 experiment  
p454
aa(lp455
F632.869
aF634.063
aV wordPlacementMarker1519 At wordPlacementMarker1520 the wordPlacementMarker1521 end wordPlacementMarker1522 of wordPlacementMarker1523 the wordPlacementMarker1524 experiment 
p456
aa(lp457
F635.675
aF635.857
aV  wordPlacementMarker1525 your wordPlacementMarker1526 earnings wordPlacementMarker1527 in wordPlacementMarker1528 Francs wordPlacementMarker1529 will wordPlacementMarker1530 be wordPlacementMarker1531 converted wordPlacementMarker1532 into wordPlacementMarker1533 US wordPlacementMarker1534 Dollars wordPlacementMarker1535 and wordPlacementMarker1536 you wordPlacementMarker1537 will wordPlacementMarker1538 be wordPlacementMarker1539 paid wordPlacementMarker1540 in wordPlacementMarker1541 cash 
p458
aa(lp459
F640.626
aF640.808
aV  wordPlacementMarker1542 in wordPlacementMarker1543 private  
p460
aa(lp461
F641.453
aF642.646
aV wordPlacementMarker1544 The wordPlacementMarker1545 randomly wordPlacementMarker1546 selected wordPlacementMarker1547 block wordPlacementMarker1548 of wordPlacementMarker1549 thirty wordPlacementMarker1550 periods wordPlacementMarker1551 will wordPlacementMarker1552 be wordPlacementMarker1553 determined wordPlacementMarker1554 as wordPlacementMarker1555 follows 
p462
aa(lp463
F646.7
aF647.389
aV wordPlacementMarker1556 One wordPlacementMarker1557 period wordPlacementMarker1558 from wordPlacementMarker1559 the wordPlacementMarker1560 experiment wordPlacementMarker1561 will wordPlacementMarker1562 be wordPlacementMarker1563 selected wordPlacementMarker1564 at wordPlacementMarker1565 random  
p464
aa(lp465
F650.901
aF652.097
aV wordPlacementMarker1566 The wordPlacementMarker1567 block wordPlacementMarker1568 of wordPlacementMarker1569 thirty wordPlacementMarker1570 periods wordPlacementMarker1571 will wordPlacementMarker1572 contain wordPlacementMarker1573 this wordPlacementMarker1574 period 
p466
aa(lp467
F654.855
aF655.027
aV  wordPlacementMarker1575 and wordPlacementMarker1576 the wordPlacementMarker1577 following wordPlacementMarker1578 twenty nine wordPlacementMarker1579 periods  
p468
aa(lp469
F657.107
aF658.324
aV wordPlacementMarker1580 The wordPlacementMarker1581 block wordPlacementMarker1582 of wordPlacementMarker1583 thirty wordPlacementMarker1584 periods wordPlacementMarker1585 may wordPlacementMarker1586 span wordPlacementMarker1587 multiple wordPlacementMarker1588 matches  
p470
aa(lp471
F661.478
aF662.676
aV wordPlacementMarker1589 If wordPlacementMarker1590 the wordPlacementMarker1591 randomly wordPlacementMarker1592 selected wordPlacementMarker1593 period wordPlacementMarker1594 is wordPlacementMarker1595 one wordPlacementMarker1596 of wordPlacementMarker1597 the wordPlacementMarker1598 last wordPlacementMarker1599 twenty nine wordPlacementMarker1600 periods wordPlacementMarker1601 of wordPlacementMarker1602 the wordPlacementMarker1603 experiment 
p472
aa(lp473
F667.529
aF667.711
aV  wordPlacementMarker1604 then wordPlacementMarker1605 the wordPlacementMarker1606 block wordPlacementMarker1607 will wordPlacementMarker1608 loop wordPlacementMarker1609 around wordPlacementMarker1610 to wordPlacementMarker1611 the wordPlacementMarker1612 first wordPlacementMarker1613 period wordPlacementMarker1614 of wordPlacementMarker1615 the wordPlacementMarker1616 experiment 
p474
aa(lp475
F671.296
aF671.483
aV  wordPlacementMarker1617 and wordPlacementMarker1618 continue wordPlacementMarker1619 from wordPlacementMarker1620 there  
p476
aa(lp477
F672.826
aF674.01
aV wordPlacementMarker1621 Therefore 
p478
aa(lp479
F674.775
aF674.939
aV  wordPlacementMarker1622 the wordPlacementMarker1623 chance wordPlacementMarker1624 of wordPlacementMarker1625 getting wordPlacementMarker1626 paid wordPlacementMarker1627 in wordPlacementMarker1628 every wordPlacementMarker1629 period wordPlacementMarker1630 of wordPlacementMarker1631 the wordPlacementMarker1632 experiment wordPlacementMarker1633 is wordPlacementMarker1634 the wordPlacementMarker1635 same  
p480
aa(lp481
F678.829
aF680.006
aV wordPlacementMarker1636 Each wordPlacementMarker1637 choice wordPlacementMarker1638 you wordPlacementMarker1639 make wordPlacementMarker1640 is wordPlacementMarker1641 therefore wordPlacementMarker1642 important wordPlacementMarker1643 because wordPlacementMarker1644 it wordPlacementMarker1645 has wordPlacementMarker1646 a wordPlacementMarker1647 chance wordPlacementMarker1648 of wordPlacementMarker1649 determining wordPlacementMarker1650 the wordPlacementMarker1651 amount wordPlacementMarker1652 of wordPlacementMarker1653 money wordPlacementMarker1654 you wordPlacementMarker1655 earn  
p482
aa(lp483
F685.595
aF686.784
aV wordPlacementMarker1656 The wordPlacementMarker1657 randomly wordPlacementMarker1658 selected wordPlacementMarker1659 period wordPlacementMarker1660 has wordPlacementMarker1661 been wordPlacementMarker1662 drawn wordPlacementMarker1663 before wordPlacementMarker1664 the wordPlacementMarker1665 experiment  
p484
aa(lp485
F690.331
aF691.533
aV wordPlacementMarker1666 To wordPlacementMarker1667 ensure wordPlacementMarker1668 that wordPlacementMarker1669 the wordPlacementMarker1670 randomly wordPlacementMarker1671 selected wordPlacementMarker1672 period wordPlacementMarker1673 is wordPlacementMarker1674 not wordPlacementMarker1675 dependent wordPlacementMarker1676 on wordPlacementMarker1677 your wordPlacementMarker1678 choices 
p486
aa(lp487
F695.918
aF696.112
aV  wordPlacementMarker1679 it wordPlacementMarker1680 has wordPlacementMarker1681 been wordPlacementMarker1682 written wordPlacementMarker1683 on wordPlacementMarker1684 the wordPlacementMarker1685 board 
p488
aa(lp489
F697.767
aF697.927
aV  wordPlacementMarker1686 and wordPlacementMarker1687 will wordPlacementMarker1688 be wordPlacementMarker1689 uncovered wordPlacementMarker1690 at wordPlacementMarker1691 the wordPlacementMarker1692 end wordPlacementMarker1693 of wordPlacementMarker1694 the wordPlacementMarker1695 experiment  
p490
aa(lp491
F700.279
aF701.466
aV wordPlacementMarker1696 Here wordPlacementMarker1697 are wordPlacementMarker1698 some wordPlacementMarker1699 examples 
p492
aa(lp493
F702.89
aF703.588
aV wordPlacementMarker1700 First 
p494
aa(lp495
F704.173
aF704.356
aV  wordPlacementMarker1701 a wordPlacementMarker1702 regular wordPlacementMarker1703 example  
p496
aa(lp497
F705.597
aF706.784
aV wordPlacementMarker1704 If wordPlacementMarker1705 the wordPlacementMarker1706 random wordPlacementMarker1707 period wordPlacementMarker1708 is wordPlacementMarker1709 period wordPlacementMarker1710 fourteen wordPlacementMarker1711 of wordPlacementMarker1712 match wordPlacementMarker1713 number wordPlacementMarker1714 four 
p498
aa(lp499
F710.479
aF710.666
aV  wordPlacementMarker1715 then wordPlacementMarker1716 the wordPlacementMarker1717 block wordPlacementMarker1718 will wordPlacementMarker1719 contain wordPlacementMarker1720 periods wordPlacementMarker1721 fourteen wordPlacementMarker1722 through wordPlacementMarker1723 forty three wordPlacementMarker1724 of wordPlacementMarker1725 match wordPlacementMarker1726 number wordPlacementMarker1727 four  
p500
aa(lp501
F715.193
aF716.379
aV wordPlacementMarker1728 Next 
p502
aa(lp503
F716.986
aF717.172
aV  wordPlacementMarker1729 and wordPlacementMarker1730 example wordPlacementMarker1731 that wordPlacementMarker1732 spans wordPlacementMarker1733 multiple wordPlacementMarker1734 matches  
p504
aa(lp505
F719.705
aF720.904
aV wordPlacementMarker1735 If wordPlacementMarker1736 match wordPlacementMarker1737 number wordPlacementMarker1738 two wordPlacementMarker1739 has wordPlacementMarker1740 one hundred wordPlacementMarker1741 periods 
p506
aa(lp507
F723.371
aF723.563
aV  wordPlacementMarker1742 and wordPlacementMarker1743 the wordPlacementMarker1744 randomly wordPlacementMarker1745 selected wordPlacementMarker1746 period wordPlacementMarker1747 is wordPlacementMarker1748 period wordPlacementMarker1749 ninety one wordPlacementMarker1750 of wordPlacementMarker1751 match wordPlacementMarker1752 number wordPlacementMarker1753 two 
p508
aa(lp509
F727.902
aF728.083
aV  wordPlacementMarker1754 then wordPlacementMarker1755 the wordPlacementMarker1756 block wordPlacementMarker1757 will wordPlacementMarker1758 contain wordPlacementMarker1759 periods wordPlacementMarker1760 ninety one wordPlacementMarker1761 through wordPlacementMarker1762 one hundred wordPlacementMarker1763 of wordPlacementMarker1764 match wordPlacementMarker1765 number wordPlacementMarker1766 two 
p510
aa(lp511
F732.302
aF732.493
aV  wordPlacementMarker1767 and wordPlacementMarker1768 periods wordPlacementMarker1769 one wordPlacementMarker1770 through wordPlacementMarker1771 twenty wordPlacementMarker1772 of wordPlacementMarker1773 match wordPlacementMarker1774 number wordPlacementMarker1775 three  
p512
aa(lp513
F735.343
aF736.571
aV wordPlacementMarker1776 Finally 
p514
aa(lp515
F737.254
aF737.432
aV  wordPlacementMarker1777 an wordPlacementMarker1778 example wordPlacementMarker1779 that wordPlacementMarker1780 loops wordPlacementMarker1781 around wordPlacementMarker1782 to wordPlacementMarker1783 the wordPlacementMarker1784 beginning  
p516
aa(lp517
F739.83
aF741.009
aV wordPlacementMarker1785 If wordPlacementMarker1786 match wordPlacementMarker1787 number wordPlacementMarker1788 five wordPlacementMarker1789 has wordPlacementMarker1790 eighty five wordPlacementMarker1791 periods 
p518
aa(lp519
F743.708
aF743.898
aV  wordPlacementMarker1792 and wordPlacementMarker1793 the wordPlacementMarker1794 randomly wordPlacementMarker1795 selected wordPlacementMarker1796 period wordPlacementMarker1797 is wordPlacementMarker1798 period wordPlacementMarker1799 eighty one wordPlacementMarker1800 of wordPlacementMarker1801 match wordPlacementMarker1802 number wordPlacementMarker1803 five 
p520
aa(lp521
F748.351
aF748.536
aV  wordPlacementMarker1804 then wordPlacementMarker1805 the wordPlacementMarker1806 block wordPlacementMarker1807 will wordPlacementMarker1808 contain wordPlacementMarker1809 periods wordPlacementMarker1810 eighty one wordPlacementMarker1811 through wordPlacementMarker1812 eighty five wordPlacementMarker1813 of wordPlacementMarker1814 match wordPlacementMarker1815 number wordPlacementMarker1816 five 
p522
aa(lp523
F753.087
aF753.281
aV  wordPlacementMarker1817 and wordPlacementMarker1818 periods wordPlacementMarker1819 one wordPlacementMarker1820 through wordPlacementMarker1821 twenty five wordPlacementMarker1822 of wordPlacementMarker1823 match wordPlacementMarker1824 number wordPlacementMarker1825 one  
p524
aa(lp525
F757.617
aF757.617
aS''
p526
aa.