(lp0
(lp1
F0.007
aF0.007
aa(lp2
F0.0
aF0.007
aa(lp3
F0.5559999999999999
aF0.563
aa(lp4
F0.18600000000000005
aF0.749
aa(lp5
F1.112
aF1.861
aa(lp6
F9.857999999999999
aF11.719
aa(lp7
F0.0
aF11.719
aa(lp8
F0.0
aF11.719
aa(lp9
F3.021000000000001
aF14.74
aa(lp10
F5.363000000000001
aF20.103
aa(lp11
F8.552
aF28.655
aa(lp12
F8.082999999999998
aF36.738
aa(lp13
F4.131
aF40.869
aa(lp14
F0.0
aF40.869
aa(lp15
F0.0
aF40.869
aa(lp16
F1.5080000000000027
aF42.377
aa(lp17
F3.283999999999999
aF45.661
aa(lp18
F4.042000000000002
aF49.703
aa(lp19
F12.043999999999997
aF61.747
aa(lp20
F4.275000000000006
aF66.022
aa(lp21
F0.0
aF66.022
aa(lp22
F0.0
aF66.022
aa(lp23
F1.2459999999999951
aF67.268
aa(lp24
F4.2690000000000055
aF71.537
aa(lp25
F17.236999999999995
aF88.774
aa(lp26
F4.1569999999999965
aF92.931
aa(lp27
F4.942999999999998
aF97.874
aa(lp28
F11.233000000000004
aF109.107
aa(lp29
F9.570000000000007
aF118.677
aa(lp30
F0.0
aF118.677
aa(lp31
F0.0
aF118.677
aa(lp32
F4.244
aF122.921
aa(lp33
F5.33799999999998
aF128.259
aa(lp34
F1.997000000000014
aF130.256
aa(lp35
F7.195999999999998
aF137.452
aa(lp36
F3.4890000000000043
aF140.941
aa(lp37
F0.0
aF140.941
aa(lp38
F0.0
aF140.941
aa(lp39
F12.552999999999997
aF153.494
aa(lp40
F6.598000000000013
aF160.092
aa(lp41
F8.220999999999975
aF168.313
aa(lp42
F15.733000000000004
aF184.046
aa(lp43
F21.087000000000018
aF205.133
aa(lp44
F14.087999999999994
aF219.221
aa(lp45
F7.075999999999993
aF226.297
aa(lp46
F0.0
aF226.297
aa(lp47
F0.0
aF226.297
aa(lp48
F0.0
aF226.297
aa(lp49
F12.549000000000007
aF238.846
aa(lp50
F0.0
aF238.846
aa(lp51
F0.0
aF238.846
aa(lp52
F8.224999999999994
aF247.071
aa(lp53
F0.9509999999999934
aF248.022
aa(lp54
F5.3440000000000225
aF253.366
aa(lp55
F0.900999999999982
aF254.267
aa(lp56
F15.935999999999979
aF270.203
aa(lp57
F2.7070000000000505
aF272.91
aa(lp58
F0.8489999999999895
aF273.759
aa(lp59
F1.968999999999994
aF275.728
aa(lp60
F19.567999999999984
aF295.296
aa(lp61
F0.0
aF295.296
aa(lp62
F0.0
aF295.296
aa(lp63
F6.557000000000016
aF301.853
aa(lp64
F6.100999999999999
aF307.954
aa(lp65
F0.0
aF307.954
aa(lp66
F0.0
aF307.954
aa(lp67
F0.0
aF307.954
aa(lp68
F7.007999999999981
aF314.962
aa(lp69
F0.0
aF314.962
aa(lp70
F0.0
aF314.962
aa(lp71
F0.0
aF314.962
aa(lp72
F11.028999999999996
aF325.991
aa(lp73
F0.0
aF325.991
aa(lp74
F32.007000000000005
aF357.998
aa(lp75
F6.228999999999985
aF364.227
aa(lp76
F14.393000000000029
aF378.62
aa(lp77
F6.163000000000011
aF384.783
aa(lp78
F27.128999999999962
aF411.912
aa(lp79
F21.31600000000003
aF433.228
aa(lp80
F17.221000000000004
aF450.449
aa(lp81
F11.890999999999963
aF462.34
aa(lp82
F26.18300000000005
aF488.523
aa(lp83
F2.217999999999961
aF490.741
aa(lp84
F5.3559999999999945
aF496.097
aa(lp85
F4.366000000000042
aF500.463
aa(lp86
F2.6259999999999764
aF503.089
aa(lp87
F2.8870000000000005
aF505.976
aa(lp88
F5.9529999999999745
aF511.929
aa(lp89
F6.593000000000075
aF518.522
aa(lp90
F4.8559999999999945
aF523.378
aa(lp91
F0.0
aF523.378
aa(lp92
F0.0
aF523.378
aa(lp93
F9.93999999999994
aF533.318
aa(lp94
F3.2129999999999654
aF536.531
aa(lp95
F9.42100000000005
aF545.952
aa(lp96
F3.9279999999999973
aF549.88
aa(lp97
F19.239000000000033
aF569.119
aa(lp98
F4.499000000000024
aF573.618
aa(lp99
F0.0
aF573.618
aa(lp100
F27.209999999999923
aF600.828
aa(lp101
F0.0
aF600.828
aa(lp102
F0.0
aF600.828
aa(lp103
F1.245999999999981
aF602.074
aa(lp104
F4.062000000000012
aF606.136
aa(lp105
F5.105000000000018
aF611.241
aa(lp106
F6.675000000000068
aF617.916
aa(lp107
F9.451999999999998
aF627.368
aa(lp108
F8.488999999999919
aF635.857
aa(lp109
F4.119000000000028
aF639.976
aa(lp110
F2.669999999999959
aF642.646
aa(lp111
F0.0
aF642.646
aa(lp112
F0.0
aF642.646
aa(lp113
F4.743000000000052
aF647.389
aa(lp114
F4.70799999999997
aF652.097
aa(lp115
F6.226999999999975
aF658.324
aa(lp116
F4.352000000000089
aF662.676
aa(lp117
F11.333999999999946
aF674.01
aa(lp118
F12.774000000000001
aF686.784
aa(lp119
F14.682000000000016
aF701.466
aa(lp120
F0.0
aF701.466
aa(lp121
F0.0
aF701.466
aa(lp122
F5.317999999999984
aF706.784
aa(lp123
F3.882000000000062
aF710.666
aa(lp124
F10.237999999999943
aF720.904
aa(lp125
F7.178999999999974
aF728.083
aa(lp126
F12.926000000000045
aF741.009
aa(lp127
F7.52699999999993
aF748.536
aa.