(lp0
(dp1
S'args'
p2
(dp3
S'color'
p4
S'rgba(0,0,255,.1)'
p5
ssS'func'
p6
S'changeBackgroundColor'
p7
sa(dp8
g2
(dp9
S'fontSize'
p10
I300
sS'divID'
p11
S'automatic'
p12
sg4
S'rgba(0,0,0,1)'
p13
sS'text'
p14
S'Welcome To'
p15
sS'top'
p16
I150
sS'fadeTime'
p17
I2
sS'textAlign'
p18
S'center'
p19
sS'left'
p20
I0
ssg6
S'placeText'
p21
sa(dp22
g2
(dp23
g10
I300
sg11
S'automatic2'
p24
sg4
g13
sg14
S'The Economic Science'
p25
sg16
I625
sg17
I2
sg18
g19
sg20
I0
ssg6
g21
sa(dp26
g2
(dp27
g10
I300
sg11
S'automatic3'
p28
sg4
g13
sg14
S'Laboratory'
p29
sg16
I700
sg17
I2
sg18
g19
sg20
I0
ssg6
g21
sa(dp30
g2
(dp31
S'functionName'
p32
S'drawLogoESL'
p33
ssg6
S'runJavascriptFunction'
p34
sa(dp35
g2
(dp36
g32
S'clearAllInstructions'
p37
ssg6
g34
sa(dp38
g2
(dp39
g4
S'rgba(0,255,0,.1)'
p40
ssg6
g7
sa(dp41
g2
(dp42
g11
S'instructionsSlideTitle'
p43
sg4
S'rgba(0,127,0,1)'
p44
sg14
S'Welcome'
p45
sg16
I50
sg17
I1
sg10
I400
sg18
g19
sg20
I0
ssg6
g21
sa(dp46
g2
(dp47
g11
S'instructionsSlideEntry1'
p48
sg4
g13
sg14
S'Economics Experiment.'
p49
sg16
I200
sg17
I2
sg10
I300
sg18
g19
sg20
I0
ssg6
g21
sa(dp50
g2
(dp51
g11
S'instructionsSlideEntry2'
p52
sg4
g13
sg14
S'Will get paid in cash at the end of the experiment.'
p53
sg16
I350
sg17
I2
sg10
I300
sg18
g19
sg20
I0
ssg6
g21
sa(dp54
g2
(dp55
g11
S'instructionsSlideEntry3'
p56
sg4
g13
sg14
S'Please remain silent.'
p57
sg16
I500
sg17
I2
sg10
I300
sg18
g19
sg20
I0
ssg6
g21
sa(dp58
g2
(dp59
g11
S'instructionsSlideEntry4'
p60
sg4
g13
sg14
S'Please raise your hand for help.'
p61
sg16
I650
sg17
I2
sg10
I300
sg18
g19
sg20
I0
ssg6
g21
sa(dp62
g2
(dp63
g32
g37
ssg6
g34
sa(dp64
g2
(dp65
g4
S'rgba(255,0,0,.1)'
p66
ssg6
g7
sa(dp67
g2
(dp68
g11
g43
sg4
S'rgba(127,0,0,1)'
p69
sg14
g45
sg16
I50
sg17
I1
sg10
I400
sg18
g19
sg20
I0
ssg6
g21
sa(dp70
g2
(dp71
g11
S'instructionsSlideEntry1'
p72
sg4
g13
sg14
S'Do not talk, laugh or exclaim out loud.'
p73
sg16
I200
sg17
I2
sg10
I300
sg18
g19
sg20
I0
ssg6
g21
sa(dp74
g2
(dp75
g11
S'instructionsSlideEntry2'
p76
sg4
g13
sg14
S'Keep your eyes on your screen only.'
p77
sg16
I350
sg17
I2
sg10
I300
sg18
g19
sg20
I0
ssg6
g21
sa(dp78
g2
(dp79
g11
S'instructionsSlideEntry3'
p80
sg4
g13
sg14
S'Turn off cell phones, etc. and put them away.'
p81
sg16
I500
sg17
I2
sg10
I300
sg18
g19
sg20
I0
ssg6
g21
sa(dp82
g2
(dp83
g11
S'instructionsSlideEntry4'
p84
sg4
g13
sg14
S'We appreciate your cooperation.'
p85
sg16
I650
sg17
I2
sg10
I300
sg18
g19
sg20
I0
ssg6
g21
sa(dp86
g2
(dp87
g32
g37
ssg6
g34
sa(dp88
g2
(dp89
g4
S'rgba(0,0,255,.1)'
p90
ssg6
g7
sa(dp91
g2
(dp92
g11
g43
sg4
S'rgba(0,0,127,1)'
p93
sg14
S'Agenda'
p94
sg16
I50
sg17
I1
sg10
I400
sg18
g19
sg20
I0
ssg6
g21
sa(dp95
g2
(dp96
g11
S'instructionsSlideEntry1'
p97
sg4
g13
sg14
S'1. Instructions'
p98
sg16
I175
sg17
I2
sg10
I300
sg18
g20
sg20
I200
ssg6
g21
sa(dp99
g2
(dp100
g11
S'instructionsSlideEntry2'
p101
sg4
g13
sg14
S'2. Quiz'
p102
sg16
I275
sg17
I2
sg10
I300
sg18
g20
sg20
I200
ssg6
g21
sa(dp103
g2
(dp104
g11
S'instructionsSlideEntry3'
p105
sg4
g13
sg14
S'3. Experiment'
p106
sg16
I375
sg17
I2
sg10
I300
sg18
g20
sg20
I200
ssg6
g21
sa(dp107
g2
(dp108
g11
S'instructionsSlideEntry4'
p109
sg4
g13
sg14
S'4. Three Additional Tasks'
p110
sg16
I475
sg17
I2
sg10
I300
sg18
g20
sg20
I200
ssg6
g21
sa(dp111
g2
(dp112
g11
S'instructionsSlideEntry5'
p113
sg4
g13
sg14
S'5. Survey'
p114
sg16
I575
sg17
I2
sg10
I300
sg18
g20
sg20
I200
ssg6
g21
sa(dp115
g2
(dp116
g11
S'instructionsSlideEntry6'
p117
sg4
g13
sg14
S'6. Payment'
p118
sg16
I675
sg17
I2
sg10
I300
sg18
g20
sg20
I200
ssg6
g21
sa(dp119
g2
(dp120
g32
g37
ssg6
g34
sa(dp121
g2
(dp122
g4
S'rgba(255,0,0,.1)'
p123
ssg6
g7
sa(dp124
g2
(dp125
g11
g43
sg4
S'rgba(127,0,0,1)'
p126
sg14
S'Experiment Overview'
p127
sg16
I50
sg17
I1
sg10
I400
sg18
g19
sg20
I0
ssg6
g21
sa(dp128
g2
(dp129
g11
S'instructionsSlideEntry1'
p130
sg4
g13
sg14
S'Matched in pairs.'
p131
sg16
I200
sg17
I2
sg10
I300
sg18
g19
sg20
I0
ssg6
g21
sa(dp132
g2
(dp133
g11
S'instructionsSlideEntry2'
p134
sg4
g13
sg14
S'Your choice affects your payoff.'
p135
sg16
I350
sg17
I2
sg10
I300
sg18
g19
sg20
I0
ssg6
g21
sa(dp136
g2
(dp137
g11
S'instructionsSlideEntry3'
p138
sg4
g13
sg14
S'Your choice affects their payoff.'
p139
sg16
I500
sg17
I2
sg10
I300
sg18
g19
sg20
I0
ssg6
g21
sa(dp140
g2
(dp141
g11
S'instructionsSlideEntry4'
p142
sg4
g13
sg14
S'Their choice affects your payoff.'
p143
sg16
I650
sg17
I2
sg10
I300
sg18
g19
sg20
I0
ssg6
g21
sa(dp144
g2
(dp145
g32
g37
ssg6
g34
sa(dp146
g2
(dp147
g4
S'rgba(0,255,0,.1)'
p148
ssg6
g7
sa(dp149
g2
(dp150
g11
g43
sg4
S'rgba(0,127,0,1)'
p151
sg14
S'Experiment Details'
p152
sg16
I50
sg17
I1
sg10
I400
sg18
g19
sg20
I0
ssg6
g21
sa(dp153
g2
(dp154
g11
S'instructionsSlideEntry1'
p155
sg4
g13
sg14
S'Exchange Rate: 20 Francs = $1'
p156
sg16
I175
sg17
I2
sg10
I300
sg18
g19
sg20
I0
ssg6
g21
sa(dp157
g2
(dp158
g11
S'instructionsSlideEntry2'
p159
sg4
g13
sg14
S'5 Matches (may have different # of periods)'
p160
sg16
I275
sg17
I2
sg10
I300
sg18
g19
sg20
I0
ssg6
g21
sa(dp161
g2
(dp162
g11
S'instructionsSlideEntry3'
p163
sg4
g13
sg14
S'At beginning of each match, randomly matched with another subject'
p164
sg16
I375
sg17
I2
sg10
I300
sg18
g19
sg20
I0
ssg6
g21
sa(dp165
g2
(dp166
g11
S'instructionsSlideEntry4'
p167
sg4
g13
sg14
S'Your identity is anonymous'
p168
sg16
I475
sg17
I2
sg10
I300
sg18
g19
sg20
I0
ssg6
g21
sa(dp169
g2
(dp170
g11
S'instructionsSlideEntry5'
p171
sg4
g13
sg14
S'Matched with same subject for entire match'
p172
sg16
I575
sg17
I2
sg10
I300
sg18
g19
sg20
I0
ssg6
g21
sa(dp173
g2
(dp174
g11
S'instructionsSlideEntry6'
p175
sg4
g13
sg14
S'Randomly matched with another subject (anonymous)'
p176
sg16
I675
sg17
I2
sg10
I300
sg18
g19
sg20
I0
ssg6
g21
sa(dp177
g2
(dp178
g32
g37
ssg6
g34
sa(dp179
g2
(dp180
sg6
S'setInstructionParameters'
p181
sa(dp182
g2
(dp183
sg6
S'instructionsSetState'
p184
sa(dp185
g2
(dp186
S'y'
p187
I500
sS'x'
p188
I500
ssg6
S'placeCursor'
p189
sa(dp190
g2
(dp191
g32
S'toggleOverlay'
p192
ssg6
g34
sa(dp193
g2
(dp194
S'divName'
p195
S'gameDiv'
p196
ssg6
S'highlightDiv'
p197
sa(dp198
g2
(dp199
S'sequence'
p200
(lp201
(lp202
S'toDiv'
p203
a(dp204
g195
g196
saassS'runOnRefresh'
p205
I00
sg6
S'mouseSequence'
p206
sa(dp207
g2
(dp208
g200
(lp209
(lp210
g203
a(dp211
g195
S'gameTableRowLabel_1'
p212
saassg205
I00
sg6
g206
sa(dp213
g2
(dp214
g200
(lp215
(lp216
g203
a(dp217
g195
S'gameTableRowLabel_2'
p218
saassg205
I00
sg6
g206
sa(dp219
g2
(dp220
g200
(lp221
(lp222
g203
a(dp223
g195
S'gameTableColLabel_1'
p224
saassg205
I00
sg6
g206
sa(dp225
g2
(dp226
g200
(lp227
(lp228
g203
a(dp229
g195
S'gameTableColLabel_2'
p230
saassg205
I00
sg6
g206
sa(dp231
g2
(dp232
g200
(lp233
(lp234
g203
a(dp235
g195
g218
saassg205
I00
sg6
g206
sa(dp236
g2
(dp237
g200
(lp238
(lp239
g203
a(dp240
g195
g224
saassg205
I00
sg6
g206
sa(dp241
g2
(dp242
g200
(lp243
(lp244
g203
a(dp245
g195
S'gameTableEntryPay1_2_1'
p246
saassg205
I00
sg6
g206
sa(dp247
g2
(dp248
g200
(lp249
(lp250
g203
a(dp251
g195
S'gameTableEntryPay2_2_1'
p252
saassg205
I00
sg6
g206
sa(dp253
g2
(dp254
g195
g196
ssg6
S'unHighlightDiv'
p255
sa(dp256
g2
(dp257
g195
S'questionsDiv'
p258
ssg6
g197
sa(dp259
g2
(dp260
g200
(lp261
(lp262
g203
a(dp263
g195
S'periodSummaryLabel'
p264
saassg205
I00
sg6
g206
sa(dp265
g2
(dp266
g200
(lp267
(lp268
g203
a(dp269
g195
S'summaryLabel'
p270
saassg205
I00
sg6
g206
sa(dp271
g2
(dp272
g195
g258
ssg6
g255
sa(dp273
g2
(dp274
g195
S'historyDiv'
p275
ssg6
g197
sa(dp276
g2
(dp277
g195
S'historyLabels'
p278
ssg6
g197
sa(dp279
g2
(dp280
g200
(lp281
(lp282
g203
a(dp283
g195
g278
saassg205
I00
sg6
g206
sa(dp284
g2
(dp285
g195
g275
ssg6
g255
sa(dp286
g2
(dp287
g195
g278
ssg6
g255
sa(dp288
g2
(dp289
g195
S'statusBar'
p290
ssg6
g197
sa(dp291
g2
(dp292
g200
(lp293
(lp294
g203
a(dp295
g195
g290
saassg205
I00
sg6
g206
sa(dp296
g2
(dp297
g195
g290
ssg6
g255
sa(dp298
g2
(dp299
g32
g192
ssg6
g34
sa(dp300
g2
(dp301
g200
(lp302
(lp303
g203
a(dp304
g195
g212
saa(lp305
S'clickDiv'
p306
a(dp307
g2
(dp308
S'row'
p309
I1
ssg6
S'instructionsSelectRow'
p310
sg195
g212
saassg205
I00
sg6
g206
sa(dp311
g2
(dp312
g200
(lp313
(lp314
g203
a(dp315
g195
S'summaryMyChoiceEntry'
p316
saassg205
I00
sg6
g206
sa(dp317
g2
(dp318
g200
(lp319
(lp320
g203
a(dp321
g195
g230
saa(lp322
g306
a(dp323
g2
(dp324
S'col'
p325
I2
ssg6
S'instructionsSelectCol'
p326
sg195
g230
saassg205
I00
sg6
g206
sa(dp327
g2
(dp328
g200
(lp329
(lp330
g203
a(dp331
g195
S'summaryOthersChoiceEntryGuess'
p332
saassg205
I00
sg6
g206
sa(dp333
g2
(dp334
g200
(lp335
(lp336
g203
a(dp337
g195
g290
saassg205
I00
sg6
g206
sa(dp338
g2
(dp339
sg6
S'instructionsFinishPeriod'
p340
sa(dp341
g2
(dp342
g200
(lp343
(lp344
g203
a(dp345
S'anchor'
p346
S'south'
p347
sg195
S'selectedColumnDiv2'
p348
saassg205
I00
sg6
g206
sa(dp349
g2
(dp350
g200
(lp351
(lp352
g203
a(dp353
g195
S'gameTableEntry_1_1'
p354
saassg205
I00
sg6
g206
sa(dp355
g2
(dp356
g200
(lp357
(lp358
g203
a(dp359
g195
S'summaryOthersChoiceEntryActual'
p360
saassg205
I00
sg6
g206
sa(dp361
g2
(dp362
g200
(lp363
(lp364
g203
a(dp365
g195
S'summaryPayoffs'
p366
saassg205
I00
sg6
g206
sa(dp367
g2
(dp368
g200
(lp369
(lp370
g203
a(dp371
g195
S'historyEntry_20_0'
p372
saassg205
I00
sg6
g206
sa(dp373
g2
(dp374
g200
(lp375
(lp376
g203
a(dp377
g195
g270
saassg205
I00
sg6
g206
sa(dp378
g2
(dp379
g200
(lp380
(lp381
g203
a(dp382
g195
S'totalPayoffMineLabel'
p383
saassg205
I00
sg6
g206
sa(dp384
g2
(dp385
g200
(lp386
(lp387
g203
a(dp388
g195
S'correctGuessesLabel'
p389
saassg205
I00
sg6
g206
sa(dp390
g2
(dp391
g200
(lp392
(lp393
g203
a(dp394
g195
g354
saassg205
I00
sg6
g206
sa(dp395
g2
(dp396
g200
(lp397
(lp398
g306
a(dp399
g2
(dp400
sg6
S'instructionsMovetoNextPeriod'
p401
sg195
g354
saassg205
I00
sg6
g206
sa(dp402
g2
(dp403
g32
g37
ssg6
g34
sa(dp404
g2
(dp405
g4
S'rgba(0,255,0,.1)'
p406
ssg6
g7
sa(dp407
g2
(dp408
g11
g43
sg4
S'rgba(0,127,0,1)'
p409
sg14
S'Number of Periods Per Match'
p410
sg16
I50
sg17
I1
sg10
I400
sg18
g19
sg20
I0
ssg6
g21
sa(dp411
g2
(dp412
g11
S'instructionsSlideEntry1'
p413
sg4
g13
sg14
S'Each Period 1 Number drawn from set'
p414
sg16
I150
sg17
I2
sg10
I300
sg18
g19
sg20
I0
ssg6
g21
sa(dp415
g2
(dp416
g11
S'instructionsSlideEntry2'
p417
sg4
g13
sg14
S'{1,2,3,...,98,99,100} (and replaced).'
p418
sg16
I250
sg17
I2
sg10
I300
sg18
g19
sg20
I0
ssg6
g21
sa(dp419
g2
(dp420
g11
S'instructionsSlideEntry3'
p421
sg4
g13
sg14
S'If Number is 1 - The match ends.'
p422
sg16
I350
sg17
I2
sg10
I300
sg18
g19
sg20
I0
ssg6
g21
sa(dp423
g2
(dp424
g11
S'instructionsSlideEntry4'
p425
sg4
g13
sg14
S'If Number is not 1 - There match will continue.'
p426
sg16
I450
sg17
I2
sg10
I300
sg18
g19
sg20
I0
ssg6
g21
sa(dp427
g2
(dp428
g11
S'instructionsSlideEntry5'
p429
sg4
g13
sg14
S'Expected number of periods is 100 (but may be different).'
p430
sg16
I550
sg17
I2
sg10
I300
sg18
g19
sg20
I0
ssg6
g21
sa(dp431
g2
(dp432
g11
S'instructionsSlideEntry6'
p433
sg4
g13
sg14
S'This procedure has been performed on the computer,'
p434
sg16
I650
sg17
I2
sg10
I300
sg18
g19
sg20
I0
ssg6
g21
sa(dp435
g2
(dp436
g11
S'instructionsSlideEntry7'
p437
sg4
g13
sg14
S'before the experiment.'
p438
sg16
I750
sg17
I2
sg10
I300
sg18
g19
sg20
I0
ssg6
g21
sa(dp439
g2
(dp440
g32
g37
ssg6
g34
sa(dp441
g2
(dp442
g4
S'rgba(255,0,0,.1)'
p443
ssg6
g7
sa(dp444
g2
(dp445
g11
g43
sg4
S'rgba(127,0,0,1)'
p446
sg14
S'Payoffs'
p447
sg16
I50
sg17
I1
sg10
I400
sg18
g19
sg20
I0
ssg6
g21
sa(dp448
g2
(dp449
g11
S'instructionsSlideEntry1'
p450
sg4
g13
sg14
S'Your payment will contain the following:'
p451
sg16
I150
sg17
I2
sg10
I300
sg18
g20
sg20
I200
ssg6
g21
sa(dp452
g2
(dp453
g11
S'instructionsSlideEntry2'
p454
sg4
g13
sg14
S'1. $5 Show up fee.'
p455
sg16
I250
sg17
I2
sg10
I300
sg18
g20
sg20
I250
ssg6
g21
sa(dp456
g2
(dp457
g11
S'instructionsSlideEntry3'
p458
sg4
g13
sg14
S'2. Payment from randomly selected block of 30 periods.'
p459
sg16
I350
sg17
I2
sg10
I300
sg18
g20
sg20
I250
ssg6
g21
sa(dp460
g2
(dp461
g11
S'instructionsSlideEntry4'
p462
sg4
g13
sg14
S'3. Bonus payment for raffle tickets.'
p463
sg16
I450
sg17
I2
sg10
I300
sg18
g20
sg20
I250
ssg6
g21
sa(dp464
g2
(dp465
g11
S'instructionsSlideEntry5'
p466
sg4
g13
sg14
S'4. Payment for Three Additional Tasks.'
p467
sg16
I550
sg17
I2
sg10
I300
sg18
g20
sg20
I250
ssg6
g21
sa(dp468
g2
(dp469
g11
S'instructionsSlideEntry6'
p470
sg4
g13
sg14
S'Francs converted to dollars at the end.'
p471
sg16
I650
sg17
I2
sg10
I300
sg18
g20
sg20
I200
ssg6
g21
sa(dp472
g2
(dp473
g11
S'instructionsSlideEntry7'
p474
sg4
g13
sg14
S'Paid in cash, in private.'
p475
sg16
I750
sg17
I2
sg10
I300
sg18
g20
sg20
I200
ssg6
g21
sa(dp476
g2
(dp477
g32
g37
ssg6
g34
sa(dp478
g2
(dp479
g4
S'rgba(0,0,255,.1)'
p480
ssg6
g7
sa(dp481
g2
(dp482
g11
g43
sg4
S'rgba(0,0,127,1)'
p483
sg14
S'Random Block of 30 Periods'
p484
sg16
I50
sg17
I1
sg10
I400
sg18
g19
sg20
I0
ssg6
g21
sa(dp485
g2
(dp486
g11
S'instructionsSlideEntry1'
p487
sg4
g13
sg14
S'Randomly select 1 period.'
p488
sg16
I175
sg17
I2
sg10
I300
sg18
g19
sg20
I0
ssg6
g21
sa(dp489
g2
(dp490
g11
S'instructionsSlideEntry2'
p491
sg4
g13
sg14
S'Block contains that period, and following 29.'
p492
sg16
I275
sg17
I2
sg10
I300
sg18
g19
sg20
I0
ssg6
g21
sa(dp493
g2
(dp494
g11
S'instructionsSlideEntry3'
p495
sg4
g13
sg14
S'Block can span multiple matches.'
p496
sg16
I375
sg17
I2
sg10
I300
sg18
g19
sg20
I0
ssg6
g21
sa(dp497
g2
(dp498
g11
S'instructionsSlideEntry4'
p499
sg4
g13
sg14
S'If period is at end, then block loops to 1st period.'
p500
sg16
I475
sg17
I2
sg10
I300
sg18
g19
sg20
I0
ssg6
g21
sa(dp501
g2
(dp502
g11
S'instructionsSlideEntry5'
p503
sg4
g13
sg14
S'Each period equally likely to be paid.'
p504
sg16
I575
sg17
I2
sg10
I300
sg18
g19
sg20
I0
ssg6
g21
sa(dp505
g2
(dp506
g11
S'instructionsSlideEntry6'
p507
sg4
g13
sg14
S'Random period pre-selected, written on board.'
p508
sg16
I675
sg17
I2
sg10
I300
sg18
g19
sg20
I0
ssg6
g21
sa(dp509
g2
(dp510
g32
g37
ssg6
g34
sa(dp511
g2
(dp512
g4
S'rgba(255,0,0,.1)'
p513
ssg6
g7
sa(dp514
g2
(dp515
g11
g43
sg4
S'rgba(127,0,0,1)'
p516
sg14
S'Random Block of 30 Periods: Examples'
p517
sg16
I50
sg17
I1
sg10
I400
sg18
g19
sg20
I0
ssg6
g21
sa(dp518
g2
(dp519
g11
S'instructionsSlideEntry1'
p520
sg4
g13
sg14
S'Randomly selected period: Match #4 Period #14,'
p521
sg16
I200
sg17
I2
sg10
I300
sg18
g20
sg20
I200
ssg6
g21
sa(dp522
g2
(dp523
g11
S'instructionsSlideEntry2'
p524
sg4
g13
sg14
S'Block: Match #4 P14-P43.'
p525
sg16
I300
sg17
I2
sg10
I300
sg18
g20
sg20
I200
ssg6
g21
sa(dp526
g2
(dp527
g11
S'instructionsSlideEntry3'
p528
sg4
g13
sg14
S'Randomly selected period: Match #2 Period #91,'
p529
sg16
I450
sg17
I2
sg10
I300
sg18
g20
sg20
I200
ssg6
g21
sa(dp530
g2
(dp531
g11
S'instructionsSlideEntry4'
p532
sg4
g13
sg14
S'Block: Match #2 P91-P100 and Match #3 P1-P20.'
p533
sg16
I550
sg17
I2
sg10
I300
sg18
g20
sg20
I200
ssg6
g21
sa(dp534
g2
(dp535
g11
S'instructionsSlideEntry5'
p536
sg4
g13
sg14
S'Randomly selected period: Match #5 Period #81,'
p537
sg16
I700
sg17
I2
sg10
I300
sg18
g20
sg20
I200
ssg6
g21
sa(dp538
g2
(dp539
g11
S'instructionsSlideEntry6'
p540
sg4
g13
sg14
S'Block: Match #5 P81-P85 and Match #1 P1-P25.'
p541
sg16
I800
sg17
I2
sg10
I300
sg18
g20
sg20
I200
ssg6
g21
sa.